ARM GAS  C:\Users\Student\AppData\Local\Temp\ccUcoAHh.s 			page 1


   1              		.cpu cortex-m4
   2              		.eabi_attribute 27, 1
   3              		.eabi_attribute 28, 1
   4              		.eabi_attribute 20, 1
   5              		.eabi_attribute 21, 1
   6              		.eabi_attribute 23, 3
   7              		.eabi_attribute 24, 1
   8              		.eabi_attribute 25, 1
   9              		.eabi_attribute 26, 1
  10              		.eabi_attribute 30, 1
  11              		.eabi_attribute 34, 1
  12              		.eabi_attribute 18, 4
  13              		.file	"stm32f4xx_hal_i2s.c"
  14              		.text
  15              	.Ltext0:
  16              		.cfi_sections	.debug_frame
  17              		.section	.text.I2S_WaitFlagStateUntilTimeout,"ax",%progbits
  18              		.align	1
  19              		.syntax unified
  20              		.thumb
  21              		.thumb_func
  22              		.fpu fpv4-sp-d16
  24              	I2S_WaitFlagStateUntilTimeout:
  25              	.LFB153:
  26              		.file 1 "Drivers/STM32F4xx_HAL_Driver/Src/stm32f4xx_hal_i2s.c"
   1:Drivers/STM32F4xx_HAL_Driver/Src/stm32f4xx_hal_i2s.c **** /**
   2:Drivers/STM32F4xx_HAL_Driver/Src/stm32f4xx_hal_i2s.c ****   ******************************************************************************
   3:Drivers/STM32F4xx_HAL_Driver/Src/stm32f4xx_hal_i2s.c ****   * @file    stm32f4xx_hal_i2s.c
   4:Drivers/STM32F4xx_HAL_Driver/Src/stm32f4xx_hal_i2s.c ****   * @author  MCD Application Team
   5:Drivers/STM32F4xx_HAL_Driver/Src/stm32f4xx_hal_i2s.c ****   * @version V1.7.1
   6:Drivers/STM32F4xx_HAL_Driver/Src/stm32f4xx_hal_i2s.c ****   * @date    14-April-2017
   7:Drivers/STM32F4xx_HAL_Driver/Src/stm32f4xx_hal_i2s.c ****   * @brief   I2S HAL module driver.
   8:Drivers/STM32F4xx_HAL_Driver/Src/stm32f4xx_hal_i2s.c ****   *          This file provides firmware functions to manage the following
   9:Drivers/STM32F4xx_HAL_Driver/Src/stm32f4xx_hal_i2s.c ****   *          functionalities of the Integrated Interchip Sound (I2S) peripheral:
  10:Drivers/STM32F4xx_HAL_Driver/Src/stm32f4xx_hal_i2s.c ****   *           + Initialization and de-initialization functions
  11:Drivers/STM32F4xx_HAL_Driver/Src/stm32f4xx_hal_i2s.c ****   *           + IO operation functions
  12:Drivers/STM32F4xx_HAL_Driver/Src/stm32f4xx_hal_i2s.c ****   *           + Peripheral State and Errors functions
  13:Drivers/STM32F4xx_HAL_Driver/Src/stm32f4xx_hal_i2s.c ****   @verbatim
  14:Drivers/STM32F4xx_HAL_Driver/Src/stm32f4xx_hal_i2s.c ****  ===============================================================================
  15:Drivers/STM32F4xx_HAL_Driver/Src/stm32f4xx_hal_i2s.c ****                   ##### How to use this driver #####
  16:Drivers/STM32F4xx_HAL_Driver/Src/stm32f4xx_hal_i2s.c ****  ===============================================================================
  17:Drivers/STM32F4xx_HAL_Driver/Src/stm32f4xx_hal_i2s.c ****  [..]
  18:Drivers/STM32F4xx_HAL_Driver/Src/stm32f4xx_hal_i2s.c ****     The I2S HAL driver can be used as follow:
  19:Drivers/STM32F4xx_HAL_Driver/Src/stm32f4xx_hal_i2s.c **** 
  20:Drivers/STM32F4xx_HAL_Driver/Src/stm32f4xx_hal_i2s.c ****     (#) Declare a I2S_HandleTypeDef handle structure.
  21:Drivers/STM32F4xx_HAL_Driver/Src/stm32f4xx_hal_i2s.c ****     (#) Initialize the I2S low level resources by implement the HAL_I2S_MspInit() API:
  22:Drivers/STM32F4xx_HAL_Driver/Src/stm32f4xx_hal_i2s.c ****         (##) Enable the SPIx interface clock.
  23:Drivers/STM32F4xx_HAL_Driver/Src/stm32f4xx_hal_i2s.c ****         (##) I2S pins configuration:
  24:Drivers/STM32F4xx_HAL_Driver/Src/stm32f4xx_hal_i2s.c ****             (+++) Enable the clock for the I2S GPIOs.
  25:Drivers/STM32F4xx_HAL_Driver/Src/stm32f4xx_hal_i2s.c ****             (+++) Configure these I2S pins as alternate function pull-up.
  26:Drivers/STM32F4xx_HAL_Driver/Src/stm32f4xx_hal_i2s.c ****         (##) NVIC configuration if you need to use interrupt process (HAL_I2S_Transmit_IT()
  27:Drivers/STM32F4xx_HAL_Driver/Src/stm32f4xx_hal_i2s.c ****              and HAL_I2S_Receive_IT() APIs).
  28:Drivers/STM32F4xx_HAL_Driver/Src/stm32f4xx_hal_i2s.c ****             (+++) Configure the I2Sx interrupt priority.
  29:Drivers/STM32F4xx_HAL_Driver/Src/stm32f4xx_hal_i2s.c ****             (+++) Enable the NVIC I2S IRQ handle.
  30:Drivers/STM32F4xx_HAL_Driver/Src/stm32f4xx_hal_i2s.c ****         (##) DMA Configuration if you need to use DMA process (HAL_I2S_Transmit_DMA()
  31:Drivers/STM32F4xx_HAL_Driver/Src/stm32f4xx_hal_i2s.c ****              and HAL_I2S_Receive_DMA() APIs:
  32:Drivers/STM32F4xx_HAL_Driver/Src/stm32f4xx_hal_i2s.c ****             (+++) Declare a DMA handle structure for the Tx/Rx stream.
ARM GAS  C:\Users\Student\AppData\Local\Temp\ccUcoAHh.s 			page 2


  33:Drivers/STM32F4xx_HAL_Driver/Src/stm32f4xx_hal_i2s.c ****             (+++) Enable the DMAx interface clock.
  34:Drivers/STM32F4xx_HAL_Driver/Src/stm32f4xx_hal_i2s.c ****             (+++) Configure the declared DMA handle structure with the required Tx/Rx parameters.
  35:Drivers/STM32F4xx_HAL_Driver/Src/stm32f4xx_hal_i2s.c ****             (+++) Configure the DMA Tx/Rx Stream.
  36:Drivers/STM32F4xx_HAL_Driver/Src/stm32f4xx_hal_i2s.c ****             (+++) Associate the initialized DMA handle to the I2S DMA Tx/Rx handle.
  37:Drivers/STM32F4xx_HAL_Driver/Src/stm32f4xx_hal_i2s.c ****             (+++) Configure the priority and enable the NVIC for the transfer complete interrupt on
  38:Drivers/STM32F4xx_HAL_Driver/Src/stm32f4xx_hal_i2s.c ****                 DMA Tx/Rx Stream.
  39:Drivers/STM32F4xx_HAL_Driver/Src/stm32f4xx_hal_i2s.c **** 
  40:Drivers/STM32F4xx_HAL_Driver/Src/stm32f4xx_hal_i2s.c ****    (#) Program the Mode, Standard, Data Format, MCLK Output, Audio frequency and Polarity
  41:Drivers/STM32F4xx_HAL_Driver/Src/stm32f4xx_hal_i2s.c ****        using HAL_I2S_Init() function.
  42:Drivers/STM32F4xx_HAL_Driver/Src/stm32f4xx_hal_i2s.c **** 
  43:Drivers/STM32F4xx_HAL_Driver/Src/stm32f4xx_hal_i2s.c ****    -@- The specific I2S interrupts (Transmission complete interrupt,
  44:Drivers/STM32F4xx_HAL_Driver/Src/stm32f4xx_hal_i2s.c ****        RXNE interrupt and Error Interrupts) will be managed using the macros
  45:Drivers/STM32F4xx_HAL_Driver/Src/stm32f4xx_hal_i2s.c ****        __HAL_I2S_ENABLE_IT() and __HAL_I2S_DISABLE_IT() inside the transmit and receive process.
  46:Drivers/STM32F4xx_HAL_Driver/Src/stm32f4xx_hal_i2s.c ****    -@- Make sure that either:
  47:Drivers/STM32F4xx_HAL_Driver/Src/stm32f4xx_hal_i2s.c ****         (+@) I2S PLL is configured or
  48:Drivers/STM32F4xx_HAL_Driver/Src/stm32f4xx_hal_i2s.c ****         (+@) External clock source is configured after setting correctly
  49:Drivers/STM32F4xx_HAL_Driver/Src/stm32f4xx_hal_i2s.c ****              the define constant EXTERNAL_CLOCK_VALUE in the stm32f4xx_hal_conf.h file.
  50:Drivers/STM32F4xx_HAL_Driver/Src/stm32f4xx_hal_i2s.c **** 
  51:Drivers/STM32F4xx_HAL_Driver/Src/stm32f4xx_hal_i2s.c ****    (#) Three operation modes are available within this driver :
  52:Drivers/STM32F4xx_HAL_Driver/Src/stm32f4xx_hal_i2s.c **** 
  53:Drivers/STM32F4xx_HAL_Driver/Src/stm32f4xx_hal_i2s.c ****    *** Polling mode IO operation ***
  54:Drivers/STM32F4xx_HAL_Driver/Src/stm32f4xx_hal_i2s.c ****    =================================
  55:Drivers/STM32F4xx_HAL_Driver/Src/stm32f4xx_hal_i2s.c ****    [..]
  56:Drivers/STM32F4xx_HAL_Driver/Src/stm32f4xx_hal_i2s.c ****      (+) Send an amount of data in blocking mode using HAL_I2S_Transmit()
  57:Drivers/STM32F4xx_HAL_Driver/Src/stm32f4xx_hal_i2s.c ****      (+) Receive an amount of data in blocking mode using HAL_I2S_Receive()
  58:Drivers/STM32F4xx_HAL_Driver/Src/stm32f4xx_hal_i2s.c **** 
  59:Drivers/STM32F4xx_HAL_Driver/Src/stm32f4xx_hal_i2s.c ****    *** Interrupt mode IO operation ***
  60:Drivers/STM32F4xx_HAL_Driver/Src/stm32f4xx_hal_i2s.c ****    ===================================
  61:Drivers/STM32F4xx_HAL_Driver/Src/stm32f4xx_hal_i2s.c ****    [..]
  62:Drivers/STM32F4xx_HAL_Driver/Src/stm32f4xx_hal_i2s.c ****      (+) Send an amount of data in non blocking mode using HAL_I2S_Transmit_IT()
  63:Drivers/STM32F4xx_HAL_Driver/Src/stm32f4xx_hal_i2s.c ****      (+) At transmission end of half transfer HAL_I2S_TxHalfCpltCallback is executed and user can
  64:Drivers/STM32F4xx_HAL_Driver/Src/stm32f4xx_hal_i2s.c ****          add his own code by customization of function pointer HAL_I2S_TxHalfCpltCallback
  65:Drivers/STM32F4xx_HAL_Driver/Src/stm32f4xx_hal_i2s.c ****      (+) At transmission end of transfer HAL_I2S_TxCpltCallback is executed and user can
  66:Drivers/STM32F4xx_HAL_Driver/Src/stm32f4xx_hal_i2s.c ****          add his own code by customization of function pointer HAL_I2S_TxCpltCallback
  67:Drivers/STM32F4xx_HAL_Driver/Src/stm32f4xx_hal_i2s.c ****      (+) Receive an amount of data in non blocking mode using HAL_I2S_Receive_IT()
  68:Drivers/STM32F4xx_HAL_Driver/Src/stm32f4xx_hal_i2s.c ****      (+) At reception end of half transfer HAL_I2S_RxHalfCpltCallback is executed and user can
  69:Drivers/STM32F4xx_HAL_Driver/Src/stm32f4xx_hal_i2s.c ****          add his own code by customization of function pointer HAL_I2S_RxHalfCpltCallback
  70:Drivers/STM32F4xx_HAL_Driver/Src/stm32f4xx_hal_i2s.c ****      (+) At reception end of transfer HAL_I2S_RxCpltCallback is executed and user can
  71:Drivers/STM32F4xx_HAL_Driver/Src/stm32f4xx_hal_i2s.c ****          add his own code by customization of function pointer HAL_I2S_RxCpltCallback
  72:Drivers/STM32F4xx_HAL_Driver/Src/stm32f4xx_hal_i2s.c ****      (+) In case of transfer Error, HAL_I2S_ErrorCallback() function is executed and user can
  73:Drivers/STM32F4xx_HAL_Driver/Src/stm32f4xx_hal_i2s.c ****          add his own code by customization of function pointer HAL_I2S_ErrorCallback
  74:Drivers/STM32F4xx_HAL_Driver/Src/stm32f4xx_hal_i2s.c **** 
  75:Drivers/STM32F4xx_HAL_Driver/Src/stm32f4xx_hal_i2s.c ****    *** DMA mode IO operation ***
  76:Drivers/STM32F4xx_HAL_Driver/Src/stm32f4xx_hal_i2s.c ****    ==============================
  77:Drivers/STM32F4xx_HAL_Driver/Src/stm32f4xx_hal_i2s.c ****    [..]
  78:Drivers/STM32F4xx_HAL_Driver/Src/stm32f4xx_hal_i2s.c ****      (+) Send an amount of data in non blocking mode (DMA) using HAL_I2S_Transmit_DMA()
  79:Drivers/STM32F4xx_HAL_Driver/Src/stm32f4xx_hal_i2s.c ****      (+) At transmission end of half transfer HAL_I2S_TxHalfCpltCallback is executed and user can
  80:Drivers/STM32F4xx_HAL_Driver/Src/stm32f4xx_hal_i2s.c ****          add his own code by customization of function pointer HAL_I2S_TxHalfCpltCallback
  81:Drivers/STM32F4xx_HAL_Driver/Src/stm32f4xx_hal_i2s.c ****      (+) At transmission end of transfer HAL_I2S_TxCpltCallback is executed and user can
  82:Drivers/STM32F4xx_HAL_Driver/Src/stm32f4xx_hal_i2s.c ****          add his own code by customization of function pointer HAL_I2S_TxCpltCallback
  83:Drivers/STM32F4xx_HAL_Driver/Src/stm32f4xx_hal_i2s.c ****      (+) Receive an amount of data in non blocking mode (DMA) using HAL_I2S_Receive_DMA()
  84:Drivers/STM32F4xx_HAL_Driver/Src/stm32f4xx_hal_i2s.c ****      (+) At reception end of half transfer HAL_I2S_RxHalfCpltCallback is executed and user can
  85:Drivers/STM32F4xx_HAL_Driver/Src/stm32f4xx_hal_i2s.c ****          add his own code by customization of function pointer HAL_I2S_RxHalfCpltCallback
  86:Drivers/STM32F4xx_HAL_Driver/Src/stm32f4xx_hal_i2s.c ****      (+) At reception end of transfer HAL_I2S_RxCpltCallback is executed and user can
  87:Drivers/STM32F4xx_HAL_Driver/Src/stm32f4xx_hal_i2s.c ****          add his own code by customization of function pointer HAL_I2S_RxCpltCallback
  88:Drivers/STM32F4xx_HAL_Driver/Src/stm32f4xx_hal_i2s.c ****      (+) In case of transfer Error, HAL_I2S_ErrorCallback() function is executed and user can
  89:Drivers/STM32F4xx_HAL_Driver/Src/stm32f4xx_hal_i2s.c ****          add his own code by customization of function pointer HAL_I2S_ErrorCallback
ARM GAS  C:\Users\Student\AppData\Local\Temp\ccUcoAHh.s 			page 3


  90:Drivers/STM32F4xx_HAL_Driver/Src/stm32f4xx_hal_i2s.c ****      (+) Pause the DMA Transfer using HAL_I2S_DMAPause()
  91:Drivers/STM32F4xx_HAL_Driver/Src/stm32f4xx_hal_i2s.c ****      (+) Resume the DMA Transfer using HAL_I2S_DMAResume()
  92:Drivers/STM32F4xx_HAL_Driver/Src/stm32f4xx_hal_i2s.c ****      (+) Stop the DMA Transfer using HAL_I2S_DMAStop()
  93:Drivers/STM32F4xx_HAL_Driver/Src/stm32f4xx_hal_i2s.c **** 
  94:Drivers/STM32F4xx_HAL_Driver/Src/stm32f4xx_hal_i2s.c ****    *** I2S HAL driver macros list ***
  95:Drivers/STM32F4xx_HAL_Driver/Src/stm32f4xx_hal_i2s.c ****    =============================================
  96:Drivers/STM32F4xx_HAL_Driver/Src/stm32f4xx_hal_i2s.c ****    [..]
  97:Drivers/STM32F4xx_HAL_Driver/Src/stm32f4xx_hal_i2s.c ****      Below the list of most used macros in I2S HAL driver.
  98:Drivers/STM32F4xx_HAL_Driver/Src/stm32f4xx_hal_i2s.c **** 
  99:Drivers/STM32F4xx_HAL_Driver/Src/stm32f4xx_hal_i2s.c ****       (+) __HAL_I2S_ENABLE: Enable the specified SPI peripheral (in I2S mode)
 100:Drivers/STM32F4xx_HAL_Driver/Src/stm32f4xx_hal_i2s.c ****       (+) __HAL_I2S_DISABLE: Disable the specified SPI peripheral (in I2S mode)
 101:Drivers/STM32F4xx_HAL_Driver/Src/stm32f4xx_hal_i2s.c ****       (+) __HAL_I2S_ENABLE_IT : Enable the specified I2S interrupts
 102:Drivers/STM32F4xx_HAL_Driver/Src/stm32f4xx_hal_i2s.c ****       (+) __HAL_I2S_DISABLE_IT : Disable the specified I2S interrupts
 103:Drivers/STM32F4xx_HAL_Driver/Src/stm32f4xx_hal_i2s.c ****       (+) __HAL_I2S_GET_FLAG: Check whether the specified I2S flag is set or not
 104:Drivers/STM32F4xx_HAL_Driver/Src/stm32f4xx_hal_i2s.c **** 
 105:Drivers/STM32F4xx_HAL_Driver/Src/stm32f4xx_hal_i2s.c ****     [..]
 106:Drivers/STM32F4xx_HAL_Driver/Src/stm32f4xx_hal_i2s.c ****       (@) You can refer to the I2S HAL driver header file for more useful macros
 107:Drivers/STM32F4xx_HAL_Driver/Src/stm32f4xx_hal_i2s.c **** 
 108:Drivers/STM32F4xx_HAL_Driver/Src/stm32f4xx_hal_i2s.c ****   @endverbatim
 109:Drivers/STM32F4xx_HAL_Driver/Src/stm32f4xx_hal_i2s.c ****   ******************************************************************************
 110:Drivers/STM32F4xx_HAL_Driver/Src/stm32f4xx_hal_i2s.c ****   * @attention
 111:Drivers/STM32F4xx_HAL_Driver/Src/stm32f4xx_hal_i2s.c ****   *
 112:Drivers/STM32F4xx_HAL_Driver/Src/stm32f4xx_hal_i2s.c ****   * <h2><center>&copy; COPYRIGHT(c) 2017 STMicroelectronics</center></h2>
 113:Drivers/STM32F4xx_HAL_Driver/Src/stm32f4xx_hal_i2s.c ****   *
 114:Drivers/STM32F4xx_HAL_Driver/Src/stm32f4xx_hal_i2s.c ****   * Redistribution and use in source and binary forms, with or without modification,
 115:Drivers/STM32F4xx_HAL_Driver/Src/stm32f4xx_hal_i2s.c ****   * are permitted provided that the following conditions are met:
 116:Drivers/STM32F4xx_HAL_Driver/Src/stm32f4xx_hal_i2s.c ****   *   1. Redistributions of source code must retain the above copyright notice,
 117:Drivers/STM32F4xx_HAL_Driver/Src/stm32f4xx_hal_i2s.c ****   *      this list of conditions and the following disclaimer.
 118:Drivers/STM32F4xx_HAL_Driver/Src/stm32f4xx_hal_i2s.c ****   *   2. Redistributions in binary form must reproduce the above copyright notice,
 119:Drivers/STM32F4xx_HAL_Driver/Src/stm32f4xx_hal_i2s.c ****   *      this list of conditions and the following disclaimer in the documentation
 120:Drivers/STM32F4xx_HAL_Driver/Src/stm32f4xx_hal_i2s.c ****   *      and/or other materials provided with the distribution.
 121:Drivers/STM32F4xx_HAL_Driver/Src/stm32f4xx_hal_i2s.c ****   *   3. Neither the name of STMicroelectronics nor the names of its contributors
 122:Drivers/STM32F4xx_HAL_Driver/Src/stm32f4xx_hal_i2s.c ****   *      may be used to endorse or promote products derived from this software
 123:Drivers/STM32F4xx_HAL_Driver/Src/stm32f4xx_hal_i2s.c ****   *      without specific prior written permission.
 124:Drivers/STM32F4xx_HAL_Driver/Src/stm32f4xx_hal_i2s.c ****   *
 125:Drivers/STM32F4xx_HAL_Driver/Src/stm32f4xx_hal_i2s.c ****   * THIS SOFTWARE IS PROVIDED BY THE COPYRIGHT HOLDERS AND CONTRIBUTORS "AS IS"
 126:Drivers/STM32F4xx_HAL_Driver/Src/stm32f4xx_hal_i2s.c ****   * AND ANY EXPRESS OR IMPLIED WARRANTIES, INCLUDING, BUT NOT LIMITED TO, THE
 127:Drivers/STM32F4xx_HAL_Driver/Src/stm32f4xx_hal_i2s.c ****   * IMPLIED WARRANTIES OF MERCHANTABILITY AND FITNESS FOR A PARTICULAR PURPOSE ARE
 128:Drivers/STM32F4xx_HAL_Driver/Src/stm32f4xx_hal_i2s.c ****   * DISCLAIMED. IN NO EVENT SHALL THE COPYRIGHT HOLDER OR CONTRIBUTORS BE LIABLE
 129:Drivers/STM32F4xx_HAL_Driver/Src/stm32f4xx_hal_i2s.c ****   * FOR ANY DIRECT, INDIRECT, INCIDENTAL, SPECIAL, EXEMPLARY, OR CONSEQUENTIAL
 130:Drivers/STM32F4xx_HAL_Driver/Src/stm32f4xx_hal_i2s.c ****   * DAMAGES (INCLUDING, BUT NOT LIMITED TO, PROCUREMENT OF SUBSTITUTE GOODS OR
 131:Drivers/STM32F4xx_HAL_Driver/Src/stm32f4xx_hal_i2s.c ****   * SERVICES; LOSS OF USE, DATA, OR PROFITS; OR BUSINESS INTERRUPTION) HOWEVER
 132:Drivers/STM32F4xx_HAL_Driver/Src/stm32f4xx_hal_i2s.c ****   * CAUSED AND ON ANY THEORY OF LIABILITY, WHETHER IN CONTRACT, STRICT LIABILITY,
 133:Drivers/STM32F4xx_HAL_Driver/Src/stm32f4xx_hal_i2s.c ****   * OR TORT (INCLUDING NEGLIGENCE OR OTHERWISE) ARISING IN ANY WAY OUT OF THE USE
 134:Drivers/STM32F4xx_HAL_Driver/Src/stm32f4xx_hal_i2s.c ****   * OF THIS SOFTWARE, EVEN IF ADVISED OF THE POSSIBILITY OF SUCH DAMAGE.
 135:Drivers/STM32F4xx_HAL_Driver/Src/stm32f4xx_hal_i2s.c ****   *
 136:Drivers/STM32F4xx_HAL_Driver/Src/stm32f4xx_hal_i2s.c ****   ******************************************************************************
 137:Drivers/STM32F4xx_HAL_Driver/Src/stm32f4xx_hal_i2s.c ****   */
 138:Drivers/STM32F4xx_HAL_Driver/Src/stm32f4xx_hal_i2s.c **** 
 139:Drivers/STM32F4xx_HAL_Driver/Src/stm32f4xx_hal_i2s.c **** /* Includes ------------------------------------------------------------------*/
 140:Drivers/STM32F4xx_HAL_Driver/Src/stm32f4xx_hal_i2s.c **** #include "stm32f4xx_hal.h"
 141:Drivers/STM32F4xx_HAL_Driver/Src/stm32f4xx_hal_i2s.c **** 
 142:Drivers/STM32F4xx_HAL_Driver/Src/stm32f4xx_hal_i2s.c **** /** @addtogroup STM32F4xx_HAL_Driver
 143:Drivers/STM32F4xx_HAL_Driver/Src/stm32f4xx_hal_i2s.c ****   * @{
 144:Drivers/STM32F4xx_HAL_Driver/Src/stm32f4xx_hal_i2s.c ****   */
 145:Drivers/STM32F4xx_HAL_Driver/Src/stm32f4xx_hal_i2s.c **** 
 146:Drivers/STM32F4xx_HAL_Driver/Src/stm32f4xx_hal_i2s.c **** #ifdef HAL_I2S_MODULE_ENABLED
ARM GAS  C:\Users\Student\AppData\Local\Temp\ccUcoAHh.s 			page 4


 147:Drivers/STM32F4xx_HAL_Driver/Src/stm32f4xx_hal_i2s.c **** 
 148:Drivers/STM32F4xx_HAL_Driver/Src/stm32f4xx_hal_i2s.c **** /** @defgroup I2S I2S
 149:Drivers/STM32F4xx_HAL_Driver/Src/stm32f4xx_hal_i2s.c ****   * @brief I2S HAL module driver
 150:Drivers/STM32F4xx_HAL_Driver/Src/stm32f4xx_hal_i2s.c ****   * @{
 151:Drivers/STM32F4xx_HAL_Driver/Src/stm32f4xx_hal_i2s.c ****   */
 152:Drivers/STM32F4xx_HAL_Driver/Src/stm32f4xx_hal_i2s.c **** 
 153:Drivers/STM32F4xx_HAL_Driver/Src/stm32f4xx_hal_i2s.c **** /* Private typedef -----------------------------------------------------------*/
 154:Drivers/STM32F4xx_HAL_Driver/Src/stm32f4xx_hal_i2s.c **** /* Private define ------------------------------------------------------------*/
 155:Drivers/STM32F4xx_HAL_Driver/Src/stm32f4xx_hal_i2s.c **** /* Private macro -------------------------------------------------------------*/
 156:Drivers/STM32F4xx_HAL_Driver/Src/stm32f4xx_hal_i2s.c **** /* Private variables ---------------------------------------------------------*/
 157:Drivers/STM32F4xx_HAL_Driver/Src/stm32f4xx_hal_i2s.c **** /* Private function prototypes -----------------------------------------------*/
 158:Drivers/STM32F4xx_HAL_Driver/Src/stm32f4xx_hal_i2s.c **** 
 159:Drivers/STM32F4xx_HAL_Driver/Src/stm32f4xx_hal_i2s.c **** /** @addtogroup I2S_Private_Functions
 160:Drivers/STM32F4xx_HAL_Driver/Src/stm32f4xx_hal_i2s.c ****   * @{
 161:Drivers/STM32F4xx_HAL_Driver/Src/stm32f4xx_hal_i2s.c ****   */
 162:Drivers/STM32F4xx_HAL_Driver/Src/stm32f4xx_hal_i2s.c **** static void               I2S_DMATxCplt(DMA_HandleTypeDef *hdma);
 163:Drivers/STM32F4xx_HAL_Driver/Src/stm32f4xx_hal_i2s.c **** static void               I2S_DMATxHalfCplt(DMA_HandleTypeDef *hdma);
 164:Drivers/STM32F4xx_HAL_Driver/Src/stm32f4xx_hal_i2s.c **** static void               I2S_DMARxCplt(DMA_HandleTypeDef *hdma);
 165:Drivers/STM32F4xx_HAL_Driver/Src/stm32f4xx_hal_i2s.c **** static void               I2S_DMARxHalfCplt(DMA_HandleTypeDef *hdma);
 166:Drivers/STM32F4xx_HAL_Driver/Src/stm32f4xx_hal_i2s.c **** static void               I2S_DMAError(DMA_HandleTypeDef *hdma);
 167:Drivers/STM32F4xx_HAL_Driver/Src/stm32f4xx_hal_i2s.c **** static void               I2S_Transmit_IT(I2S_HandleTypeDef *hi2s);
 168:Drivers/STM32F4xx_HAL_Driver/Src/stm32f4xx_hal_i2s.c **** static void               I2S_Receive_IT(I2S_HandleTypeDef *hi2s);
 169:Drivers/STM32F4xx_HAL_Driver/Src/stm32f4xx_hal_i2s.c **** static void               I2S_IRQHandler(I2S_HandleTypeDef *hi2s);
 170:Drivers/STM32F4xx_HAL_Driver/Src/stm32f4xx_hal_i2s.c **** static HAL_StatusTypeDef  I2S_WaitFlagStateUntilTimeout(I2S_HandleTypeDef *hi2s, uint32_t Flag, uin
 171:Drivers/STM32F4xx_HAL_Driver/Src/stm32f4xx_hal_i2s.c ****                                                         uint32_t Timeout);
 172:Drivers/STM32F4xx_HAL_Driver/Src/stm32f4xx_hal_i2s.c **** /**
 173:Drivers/STM32F4xx_HAL_Driver/Src/stm32f4xx_hal_i2s.c ****   * @}
 174:Drivers/STM32F4xx_HAL_Driver/Src/stm32f4xx_hal_i2s.c ****   */
 175:Drivers/STM32F4xx_HAL_Driver/Src/stm32f4xx_hal_i2s.c **** 
 176:Drivers/STM32F4xx_HAL_Driver/Src/stm32f4xx_hal_i2s.c **** /* Exported functions --------------------------------------------------------*/
 177:Drivers/STM32F4xx_HAL_Driver/Src/stm32f4xx_hal_i2s.c **** /** @addtogroup I2S_Exported_Functions I2S Exported Functions
 178:Drivers/STM32F4xx_HAL_Driver/Src/stm32f4xx_hal_i2s.c ****   * @{
 179:Drivers/STM32F4xx_HAL_Driver/Src/stm32f4xx_hal_i2s.c ****   */
 180:Drivers/STM32F4xx_HAL_Driver/Src/stm32f4xx_hal_i2s.c **** 
 181:Drivers/STM32F4xx_HAL_Driver/Src/stm32f4xx_hal_i2s.c **** /** @addtogroup  I2S_Exported_Functions_Group1
 182:Drivers/STM32F4xx_HAL_Driver/Src/stm32f4xx_hal_i2s.c ****   *  @brief    Initialization and Configuration functions
 183:Drivers/STM32F4xx_HAL_Driver/Src/stm32f4xx_hal_i2s.c ****   *
 184:Drivers/STM32F4xx_HAL_Driver/Src/stm32f4xx_hal_i2s.c **** @verbatim
 185:Drivers/STM32F4xx_HAL_Driver/Src/stm32f4xx_hal_i2s.c ****  ===============================================================================
 186:Drivers/STM32F4xx_HAL_Driver/Src/stm32f4xx_hal_i2s.c ****               ##### Initialization and de-initialization functions #####
 187:Drivers/STM32F4xx_HAL_Driver/Src/stm32f4xx_hal_i2s.c ****  ===============================================================================
 188:Drivers/STM32F4xx_HAL_Driver/Src/stm32f4xx_hal_i2s.c ****     [..]  This subsection provides a set of functions allowing to initialize and
 189:Drivers/STM32F4xx_HAL_Driver/Src/stm32f4xx_hal_i2s.c ****           de-initialize the I2Sx peripheral in simplex mode:
 190:Drivers/STM32F4xx_HAL_Driver/Src/stm32f4xx_hal_i2s.c **** 
 191:Drivers/STM32F4xx_HAL_Driver/Src/stm32f4xx_hal_i2s.c ****       (+) User must Implement HAL_I2S_MspInit() function in which he configures
 192:Drivers/STM32F4xx_HAL_Driver/Src/stm32f4xx_hal_i2s.c ****           all related peripherals resources (CLOCK, GPIO, DMA, IT and NVIC ).
 193:Drivers/STM32F4xx_HAL_Driver/Src/stm32f4xx_hal_i2s.c **** 
 194:Drivers/STM32F4xx_HAL_Driver/Src/stm32f4xx_hal_i2s.c ****       (+) Call the function HAL_I2S_Init() to configure the selected device with
 195:Drivers/STM32F4xx_HAL_Driver/Src/stm32f4xx_hal_i2s.c ****           the selected configuration:
 196:Drivers/STM32F4xx_HAL_Driver/Src/stm32f4xx_hal_i2s.c ****         (++) Mode
 197:Drivers/STM32F4xx_HAL_Driver/Src/stm32f4xx_hal_i2s.c ****         (++) Standard
 198:Drivers/STM32F4xx_HAL_Driver/Src/stm32f4xx_hal_i2s.c ****         (++) Data Format
 199:Drivers/STM32F4xx_HAL_Driver/Src/stm32f4xx_hal_i2s.c ****         (++) MCLK Output
 200:Drivers/STM32F4xx_HAL_Driver/Src/stm32f4xx_hal_i2s.c ****         (++) Audio frequency
 201:Drivers/STM32F4xx_HAL_Driver/Src/stm32f4xx_hal_i2s.c ****         (++) Polarity
 202:Drivers/STM32F4xx_HAL_Driver/Src/stm32f4xx_hal_i2s.c ****         (++) Full duplex mode
 203:Drivers/STM32F4xx_HAL_Driver/Src/stm32f4xx_hal_i2s.c **** 
ARM GAS  C:\Users\Student\AppData\Local\Temp\ccUcoAHh.s 			page 5


 204:Drivers/STM32F4xx_HAL_Driver/Src/stm32f4xx_hal_i2s.c ****       (+) Call the function HAL_I2S_DeInit() to restore the default configuration
 205:Drivers/STM32F4xx_HAL_Driver/Src/stm32f4xx_hal_i2s.c ****           of the selected I2Sx peripheral.
 206:Drivers/STM32F4xx_HAL_Driver/Src/stm32f4xx_hal_i2s.c **** @endverbatim
 207:Drivers/STM32F4xx_HAL_Driver/Src/stm32f4xx_hal_i2s.c ****   * @{
 208:Drivers/STM32F4xx_HAL_Driver/Src/stm32f4xx_hal_i2s.c ****   */
 209:Drivers/STM32F4xx_HAL_Driver/Src/stm32f4xx_hal_i2s.c **** 
 210:Drivers/STM32F4xx_HAL_Driver/Src/stm32f4xx_hal_i2s.c **** /**
 211:Drivers/STM32F4xx_HAL_Driver/Src/stm32f4xx_hal_i2s.c ****   * @brief Initializes the I2S according to the specified parameters
 212:Drivers/STM32F4xx_HAL_Driver/Src/stm32f4xx_hal_i2s.c ****   *         in the I2S_InitTypeDef and create the associated handle.
 213:Drivers/STM32F4xx_HAL_Driver/Src/stm32f4xx_hal_i2s.c ****   * @param  hi2s: pointer to a I2S_HandleTypeDef structure that contains
 214:Drivers/STM32F4xx_HAL_Driver/Src/stm32f4xx_hal_i2s.c ****   *         the configuration information for I2S module
 215:Drivers/STM32F4xx_HAL_Driver/Src/stm32f4xx_hal_i2s.c ****   * @retval HAL status
 216:Drivers/STM32F4xx_HAL_Driver/Src/stm32f4xx_hal_i2s.c ****   */
 217:Drivers/STM32F4xx_HAL_Driver/Src/stm32f4xx_hal_i2s.c **** HAL_StatusTypeDef HAL_I2S_Init(I2S_HandleTypeDef *hi2s)
 218:Drivers/STM32F4xx_HAL_Driver/Src/stm32f4xx_hal_i2s.c **** {
 219:Drivers/STM32F4xx_HAL_Driver/Src/stm32f4xx_hal_i2s.c ****   uint32_t tmpreg = 0U, i2sdiv = 2U, i2sodd = 0U, packetlength = 16U;
 220:Drivers/STM32F4xx_HAL_Driver/Src/stm32f4xx_hal_i2s.c ****   uint32_t tmp = 0U, i2sclk = 0U;
 221:Drivers/STM32F4xx_HAL_Driver/Src/stm32f4xx_hal_i2s.c **** 
 222:Drivers/STM32F4xx_HAL_Driver/Src/stm32f4xx_hal_i2s.c ****   /* Check the I2S handle allocation */
 223:Drivers/STM32F4xx_HAL_Driver/Src/stm32f4xx_hal_i2s.c ****   if(hi2s == NULL)
 224:Drivers/STM32F4xx_HAL_Driver/Src/stm32f4xx_hal_i2s.c ****   {
 225:Drivers/STM32F4xx_HAL_Driver/Src/stm32f4xx_hal_i2s.c ****     return HAL_ERROR;
 226:Drivers/STM32F4xx_HAL_Driver/Src/stm32f4xx_hal_i2s.c ****   }
 227:Drivers/STM32F4xx_HAL_Driver/Src/stm32f4xx_hal_i2s.c **** 
 228:Drivers/STM32F4xx_HAL_Driver/Src/stm32f4xx_hal_i2s.c ****   /* Check the I2S parameters */
 229:Drivers/STM32F4xx_HAL_Driver/Src/stm32f4xx_hal_i2s.c ****   assert_param(IS_I2S_ALL_INSTANCE(hi2s->Instance));
 230:Drivers/STM32F4xx_HAL_Driver/Src/stm32f4xx_hal_i2s.c ****   assert_param(IS_I2S_MODE(hi2s->Init.Mode));
 231:Drivers/STM32F4xx_HAL_Driver/Src/stm32f4xx_hal_i2s.c ****   assert_param(IS_I2S_STANDARD(hi2s->Init.Standard));
 232:Drivers/STM32F4xx_HAL_Driver/Src/stm32f4xx_hal_i2s.c ****   assert_param(IS_I2S_DATA_FORMAT(hi2s->Init.DataFormat));
 233:Drivers/STM32F4xx_HAL_Driver/Src/stm32f4xx_hal_i2s.c ****   assert_param(IS_I2S_MCLK_OUTPUT(hi2s->Init.MCLKOutput));
 234:Drivers/STM32F4xx_HAL_Driver/Src/stm32f4xx_hal_i2s.c ****   assert_param(IS_I2S_AUDIO_FREQ(hi2s->Init.AudioFreq));
 235:Drivers/STM32F4xx_HAL_Driver/Src/stm32f4xx_hal_i2s.c ****   assert_param(IS_I2S_CPOL(hi2s->Init.CPOL));
 236:Drivers/STM32F4xx_HAL_Driver/Src/stm32f4xx_hal_i2s.c ****   assert_param(IS_I2S_CLOCKSOURCE(hi2s->Init.ClockSource));
 237:Drivers/STM32F4xx_HAL_Driver/Src/stm32f4xx_hal_i2s.c **** 
 238:Drivers/STM32F4xx_HAL_Driver/Src/stm32f4xx_hal_i2s.c ****   hi2s->State = HAL_I2S_STATE_BUSY;
 239:Drivers/STM32F4xx_HAL_Driver/Src/stm32f4xx_hal_i2s.c **** 
 240:Drivers/STM32F4xx_HAL_Driver/Src/stm32f4xx_hal_i2s.c ****   /* Initialize Default I2S IrqHandler ISR */
 241:Drivers/STM32F4xx_HAL_Driver/Src/stm32f4xx_hal_i2s.c ****   hi2s->IrqHandlerISR = I2S_IRQHandler;
 242:Drivers/STM32F4xx_HAL_Driver/Src/stm32f4xx_hal_i2s.c **** 
 243:Drivers/STM32F4xx_HAL_Driver/Src/stm32f4xx_hal_i2s.c ****   /* Init the low level hardware : GPIO, CLOCK, CORTEX...etc */
 244:Drivers/STM32F4xx_HAL_Driver/Src/stm32f4xx_hal_i2s.c ****   HAL_I2S_MspInit(hi2s);
 245:Drivers/STM32F4xx_HAL_Driver/Src/stm32f4xx_hal_i2s.c **** 
 246:Drivers/STM32F4xx_HAL_Driver/Src/stm32f4xx_hal_i2s.c ****   /*----------------------- SPIx I2SCFGR & I2SPR Configuration ---------------*/
 247:Drivers/STM32F4xx_HAL_Driver/Src/stm32f4xx_hal_i2s.c ****   /* Clear I2SMOD, I2SE, I2SCFG, PCMSYNC, I2SSTD, CKPOL, DATLEN and CHLEN bits */
 248:Drivers/STM32F4xx_HAL_Driver/Src/stm32f4xx_hal_i2s.c ****   CLEAR_BIT(hi2s->Instance->I2SCFGR,(SPI_I2SCFGR_CHLEN | SPI_I2SCFGR_DATLEN | SPI_I2SCFGR_CKPOL | \
 249:Drivers/STM32F4xx_HAL_Driver/Src/stm32f4xx_hal_i2s.c ****                                      SPI_I2SCFGR_I2SSTD | SPI_I2SCFGR_PCMSYNC | SPI_I2SCFGR_I2SCFG 
 250:Drivers/STM32F4xx_HAL_Driver/Src/stm32f4xx_hal_i2s.c ****                                      SPI_I2SCFGR_I2SE | SPI_I2SCFGR_I2SMOD));
 251:Drivers/STM32F4xx_HAL_Driver/Src/stm32f4xx_hal_i2s.c ****   hi2s->Instance->I2SPR = 0x0002U;
 252:Drivers/STM32F4xx_HAL_Driver/Src/stm32f4xx_hal_i2s.c **** 
 253:Drivers/STM32F4xx_HAL_Driver/Src/stm32f4xx_hal_i2s.c ****   /* Get the I2SCFGR register value */
 254:Drivers/STM32F4xx_HAL_Driver/Src/stm32f4xx_hal_i2s.c ****   tmpreg = hi2s->Instance->I2SCFGR;
 255:Drivers/STM32F4xx_HAL_Driver/Src/stm32f4xx_hal_i2s.c **** 
 256:Drivers/STM32F4xx_HAL_Driver/Src/stm32f4xx_hal_i2s.c ****   /* If the default frequency value has to be written, reinitialize i2sdiv and i2sodd */
 257:Drivers/STM32F4xx_HAL_Driver/Src/stm32f4xx_hal_i2s.c ****   /* If the requested audio frequency is not the default, compute the prescaler */
 258:Drivers/STM32F4xx_HAL_Driver/Src/stm32f4xx_hal_i2s.c ****   if(hi2s->Init.AudioFreq != I2S_AUDIOFREQ_DEFAULT)
 259:Drivers/STM32F4xx_HAL_Driver/Src/stm32f4xx_hal_i2s.c ****   {
 260:Drivers/STM32F4xx_HAL_Driver/Src/stm32f4xx_hal_i2s.c ****     /* Check the frame length (For the Prescaler computing) *******************/
ARM GAS  C:\Users\Student\AppData\Local\Temp\ccUcoAHh.s 			page 6


 261:Drivers/STM32F4xx_HAL_Driver/Src/stm32f4xx_hal_i2s.c ****     /* Set I2S Packet Length value*/
 262:Drivers/STM32F4xx_HAL_Driver/Src/stm32f4xx_hal_i2s.c ****     if(hi2s->Init.DataFormat != I2S_DATAFORMAT_16B)
 263:Drivers/STM32F4xx_HAL_Driver/Src/stm32f4xx_hal_i2s.c ****     {
 264:Drivers/STM32F4xx_HAL_Driver/Src/stm32f4xx_hal_i2s.c ****       /* Packet length is 32 bits */
 265:Drivers/STM32F4xx_HAL_Driver/Src/stm32f4xx_hal_i2s.c ****       packetlength = 32U;
 266:Drivers/STM32F4xx_HAL_Driver/Src/stm32f4xx_hal_i2s.c ****     }
 267:Drivers/STM32F4xx_HAL_Driver/Src/stm32f4xx_hal_i2s.c ****     else
 268:Drivers/STM32F4xx_HAL_Driver/Src/stm32f4xx_hal_i2s.c ****     {
 269:Drivers/STM32F4xx_HAL_Driver/Src/stm32f4xx_hal_i2s.c ****       /* Packet length is 16 bits */
 270:Drivers/STM32F4xx_HAL_Driver/Src/stm32f4xx_hal_i2s.c ****       packetlength = 16U;
 271:Drivers/STM32F4xx_HAL_Driver/Src/stm32f4xx_hal_i2s.c ****     }
 272:Drivers/STM32F4xx_HAL_Driver/Src/stm32f4xx_hal_i2s.c **** 
 273:Drivers/STM32F4xx_HAL_Driver/Src/stm32f4xx_hal_i2s.c ****     /* I2S standard */
 274:Drivers/STM32F4xx_HAL_Driver/Src/stm32f4xx_hal_i2s.c ****     if(hi2s->Init.Standard <= I2S_STANDARD_LSB)
 275:Drivers/STM32F4xx_HAL_Driver/Src/stm32f4xx_hal_i2s.c ****     {
 276:Drivers/STM32F4xx_HAL_Driver/Src/stm32f4xx_hal_i2s.c ****       /* In I2S standard packet lenght is multiplied by 2 */
 277:Drivers/STM32F4xx_HAL_Driver/Src/stm32f4xx_hal_i2s.c ****       packetlength = packetlength * 2U;
 278:Drivers/STM32F4xx_HAL_Driver/Src/stm32f4xx_hal_i2s.c ****     }
 279:Drivers/STM32F4xx_HAL_Driver/Src/stm32f4xx_hal_i2s.c **** 
 280:Drivers/STM32F4xx_HAL_Driver/Src/stm32f4xx_hal_i2s.c ****     /* Get I2S source Clock frequency from RCC ********************************/
 281:Drivers/STM32F4xx_HAL_Driver/Src/stm32f4xx_hal_i2s.c **** #if defined(I2S_APB1_APB2_FEATURE)
 282:Drivers/STM32F4xx_HAL_Driver/Src/stm32f4xx_hal_i2s.c ****     if(IS_I2S_APB1_INSTANCE(hi2s->Instance))
 283:Drivers/STM32F4xx_HAL_Driver/Src/stm32f4xx_hal_i2s.c ****     {
 284:Drivers/STM32F4xx_HAL_Driver/Src/stm32f4xx_hal_i2s.c ****       i2sclk = HAL_RCCEx_GetPeriphCLKFreq(RCC_PERIPHCLK_I2S_APB1);
 285:Drivers/STM32F4xx_HAL_Driver/Src/stm32f4xx_hal_i2s.c ****     }
 286:Drivers/STM32F4xx_HAL_Driver/Src/stm32f4xx_hal_i2s.c ****     else
 287:Drivers/STM32F4xx_HAL_Driver/Src/stm32f4xx_hal_i2s.c ****     {
 288:Drivers/STM32F4xx_HAL_Driver/Src/stm32f4xx_hal_i2s.c ****       i2sclk = HAL_RCCEx_GetPeriphCLKFreq(RCC_PERIPHCLK_I2S_APB2);
 289:Drivers/STM32F4xx_HAL_Driver/Src/stm32f4xx_hal_i2s.c ****     }
 290:Drivers/STM32F4xx_HAL_Driver/Src/stm32f4xx_hal_i2s.c **** #else
 291:Drivers/STM32F4xx_HAL_Driver/Src/stm32f4xx_hal_i2s.c ****     i2sclk = HAL_RCCEx_GetPeriphCLKFreq(RCC_PERIPHCLK_I2S);
 292:Drivers/STM32F4xx_HAL_Driver/Src/stm32f4xx_hal_i2s.c **** #endif
 293:Drivers/STM32F4xx_HAL_Driver/Src/stm32f4xx_hal_i2s.c **** 
 294:Drivers/STM32F4xx_HAL_Driver/Src/stm32f4xx_hal_i2s.c ****     /* Compute the Real divider depending on the MCLK output state, with a floating point */
 295:Drivers/STM32F4xx_HAL_Driver/Src/stm32f4xx_hal_i2s.c ****     if(hi2s->Init.MCLKOutput == I2S_MCLKOUTPUT_ENABLE)
 296:Drivers/STM32F4xx_HAL_Driver/Src/stm32f4xx_hal_i2s.c ****     {
 297:Drivers/STM32F4xx_HAL_Driver/Src/stm32f4xx_hal_i2s.c ****       /* MCLK output is enabled */
 298:Drivers/STM32F4xx_HAL_Driver/Src/stm32f4xx_hal_i2s.c ****       if (hi2s->Init.DataFormat != I2S_DATAFORMAT_16B)
 299:Drivers/STM32F4xx_HAL_Driver/Src/stm32f4xx_hal_i2s.c ****       {
 300:Drivers/STM32F4xx_HAL_Driver/Src/stm32f4xx_hal_i2s.c ****         tmp = (uint32_t)(((((i2sclk / (packetlength*4)) * 10) / hi2s->Init.AudioFreq)) + 5);
 301:Drivers/STM32F4xx_HAL_Driver/Src/stm32f4xx_hal_i2s.c ****       }
 302:Drivers/STM32F4xx_HAL_Driver/Src/stm32f4xx_hal_i2s.c ****       else
 303:Drivers/STM32F4xx_HAL_Driver/Src/stm32f4xx_hal_i2s.c ****       {
 304:Drivers/STM32F4xx_HAL_Driver/Src/stm32f4xx_hal_i2s.c ****         tmp = (uint32_t)(((((i2sclk / (packetlength*8)) * 10) / hi2s->Init.AudioFreq)) + 5);
 305:Drivers/STM32F4xx_HAL_Driver/Src/stm32f4xx_hal_i2s.c ****       }
 306:Drivers/STM32F4xx_HAL_Driver/Src/stm32f4xx_hal_i2s.c ****     }
 307:Drivers/STM32F4xx_HAL_Driver/Src/stm32f4xx_hal_i2s.c ****     else
 308:Drivers/STM32F4xx_HAL_Driver/Src/stm32f4xx_hal_i2s.c ****     {
 309:Drivers/STM32F4xx_HAL_Driver/Src/stm32f4xx_hal_i2s.c ****       /* MCLK output is disabled */
 310:Drivers/STM32F4xx_HAL_Driver/Src/stm32f4xx_hal_i2s.c ****       tmp = (uint32_t)(((((i2sclk / packetlength) *10 ) / hi2s->Init.AudioFreq)) + 5);
 311:Drivers/STM32F4xx_HAL_Driver/Src/stm32f4xx_hal_i2s.c ****     }
 312:Drivers/STM32F4xx_HAL_Driver/Src/stm32f4xx_hal_i2s.c **** 
 313:Drivers/STM32F4xx_HAL_Driver/Src/stm32f4xx_hal_i2s.c ****     /* Remove the flatting point */
 314:Drivers/STM32F4xx_HAL_Driver/Src/stm32f4xx_hal_i2s.c ****     tmp = tmp / 10U;
 315:Drivers/STM32F4xx_HAL_Driver/Src/stm32f4xx_hal_i2s.c **** 
 316:Drivers/STM32F4xx_HAL_Driver/Src/stm32f4xx_hal_i2s.c ****     /* Check the parity of the divider */
 317:Drivers/STM32F4xx_HAL_Driver/Src/stm32f4xx_hal_i2s.c ****     i2sodd = (uint16_t)(tmp & (uint16_t)1U);
ARM GAS  C:\Users\Student\AppData\Local\Temp\ccUcoAHh.s 			page 7


 318:Drivers/STM32F4xx_HAL_Driver/Src/stm32f4xx_hal_i2s.c **** 
 319:Drivers/STM32F4xx_HAL_Driver/Src/stm32f4xx_hal_i2s.c ****     /* Compute the i2sdiv prescaler */
 320:Drivers/STM32F4xx_HAL_Driver/Src/stm32f4xx_hal_i2s.c ****     i2sdiv = (uint16_t)((tmp - i2sodd) / 2U);
 321:Drivers/STM32F4xx_HAL_Driver/Src/stm32f4xx_hal_i2s.c **** 
 322:Drivers/STM32F4xx_HAL_Driver/Src/stm32f4xx_hal_i2s.c ****     /* Get the Mask for the Odd bit (SPI_I2SPR[8]) register */
 323:Drivers/STM32F4xx_HAL_Driver/Src/stm32f4xx_hal_i2s.c ****     i2sodd = (uint32_t) (i2sodd << 8U);
 324:Drivers/STM32F4xx_HAL_Driver/Src/stm32f4xx_hal_i2s.c ****   }
 325:Drivers/STM32F4xx_HAL_Driver/Src/stm32f4xx_hal_i2s.c **** 
 326:Drivers/STM32F4xx_HAL_Driver/Src/stm32f4xx_hal_i2s.c ****   /* Test if the divider is 1 or 0 or greater than 0xFF */
 327:Drivers/STM32F4xx_HAL_Driver/Src/stm32f4xx_hal_i2s.c ****   if((i2sdiv < 2U) || (i2sdiv > 0xFFU))
 328:Drivers/STM32F4xx_HAL_Driver/Src/stm32f4xx_hal_i2s.c ****   {
 329:Drivers/STM32F4xx_HAL_Driver/Src/stm32f4xx_hal_i2s.c ****     /* Set the default values */
 330:Drivers/STM32F4xx_HAL_Driver/Src/stm32f4xx_hal_i2s.c ****     i2sdiv = 2U;
 331:Drivers/STM32F4xx_HAL_Driver/Src/stm32f4xx_hal_i2s.c ****     i2sodd = 0U;
 332:Drivers/STM32F4xx_HAL_Driver/Src/stm32f4xx_hal_i2s.c **** 
 333:Drivers/STM32F4xx_HAL_Driver/Src/stm32f4xx_hal_i2s.c ****     /* Set the error code and execute error callback*/
 334:Drivers/STM32F4xx_HAL_Driver/Src/stm32f4xx_hal_i2s.c ****     SET_BIT(hi2s->ErrorCode, HAL_I2S_ERROR_PRESCALER);
 335:Drivers/STM32F4xx_HAL_Driver/Src/stm32f4xx_hal_i2s.c ****     HAL_I2S_ErrorCallback(hi2s);
 336:Drivers/STM32F4xx_HAL_Driver/Src/stm32f4xx_hal_i2s.c ****     return  HAL_ERROR;
 337:Drivers/STM32F4xx_HAL_Driver/Src/stm32f4xx_hal_i2s.c ****   }
 338:Drivers/STM32F4xx_HAL_Driver/Src/stm32f4xx_hal_i2s.c **** 
 339:Drivers/STM32F4xx_HAL_Driver/Src/stm32f4xx_hal_i2s.c ****   /* Write to SPIx I2SPR register the computed value */
 340:Drivers/STM32F4xx_HAL_Driver/Src/stm32f4xx_hal_i2s.c ****   hi2s->Instance->I2SPR = (uint32_t)((uint32_t)i2sdiv | (uint32_t)(i2sodd | (uint32_t)hi2s->Init.MC
 341:Drivers/STM32F4xx_HAL_Driver/Src/stm32f4xx_hal_i2s.c **** 
 342:Drivers/STM32F4xx_HAL_Driver/Src/stm32f4xx_hal_i2s.c ****   /* Configure the I2S with the I2S_InitStruct values */
 343:Drivers/STM32F4xx_HAL_Driver/Src/stm32f4xx_hal_i2s.c ****   tmpreg |= (uint16_t)((uint16_t)SPI_I2SCFGR_I2SMOD | (uint16_t)(hi2s->Init.Mode | \
 344:Drivers/STM32F4xx_HAL_Driver/Src/stm32f4xx_hal_i2s.c ****                        (uint16_t)(hi2s->Init.Standard | (uint16_t)(hi2s->Init.DataFormat | \
 345:Drivers/STM32F4xx_HAL_Driver/Src/stm32f4xx_hal_i2s.c ****                        (uint16_t)hi2s->Init.CPOL))));
 346:Drivers/STM32F4xx_HAL_Driver/Src/stm32f4xx_hal_i2s.c **** 
 347:Drivers/STM32F4xx_HAL_Driver/Src/stm32f4xx_hal_i2s.c **** #if defined(SPI_I2SCFGR_ASTRTEN)
 348:Drivers/STM32F4xx_HAL_Driver/Src/stm32f4xx_hal_i2s.c ****   if ((hi2s->Init.Standard == I2S_STANDARD_PCM_SHORT) ||(hi2s->Init.Standard == I2S_STANDARD_PCM_LO
 349:Drivers/STM32F4xx_HAL_Driver/Src/stm32f4xx_hal_i2s.c ****   {
 350:Drivers/STM32F4xx_HAL_Driver/Src/stm32f4xx_hal_i2s.c ****   /* Write to SPIx I2SCFGR */
 351:Drivers/STM32F4xx_HAL_Driver/Src/stm32f4xx_hal_i2s.c ****     WRITE_REG(hi2s->Instance->I2SCFGR,(tmpreg | SPI_I2SCFGR_ASTRTEN));
 352:Drivers/STM32F4xx_HAL_Driver/Src/stm32f4xx_hal_i2s.c ****   }
 353:Drivers/STM32F4xx_HAL_Driver/Src/stm32f4xx_hal_i2s.c ****   else
 354:Drivers/STM32F4xx_HAL_Driver/Src/stm32f4xx_hal_i2s.c ****   {
 355:Drivers/STM32F4xx_HAL_Driver/Src/stm32f4xx_hal_i2s.c ****   /* Write to SPIx I2SCFGR */
 356:Drivers/STM32F4xx_HAL_Driver/Src/stm32f4xx_hal_i2s.c ****     WRITE_REG(hi2s->Instance->I2SCFGR,tmpreg);
 357:Drivers/STM32F4xx_HAL_Driver/Src/stm32f4xx_hal_i2s.c ****   }
 358:Drivers/STM32F4xx_HAL_Driver/Src/stm32f4xx_hal_i2s.c **** #else
 359:Drivers/STM32F4xx_HAL_Driver/Src/stm32f4xx_hal_i2s.c ****   /* Write to SPIx I2SCFGR */
 360:Drivers/STM32F4xx_HAL_Driver/Src/stm32f4xx_hal_i2s.c ****   WRITE_REG(hi2s->Instance->I2SCFGR, tmpreg);
 361:Drivers/STM32F4xx_HAL_Driver/Src/stm32f4xx_hal_i2s.c **** #endif
 362:Drivers/STM32F4xx_HAL_Driver/Src/stm32f4xx_hal_i2s.c **** 
 363:Drivers/STM32F4xx_HAL_Driver/Src/stm32f4xx_hal_i2s.c **** #if defined (SPI_I2S_FULLDUPLEX_SUPPORT)
 364:Drivers/STM32F4xx_HAL_Driver/Src/stm32f4xx_hal_i2s.c **** 
 365:Drivers/STM32F4xx_HAL_Driver/Src/stm32f4xx_hal_i2s.c ****   /* Configure the I2S extended if the full duplex mode is enabled */
 366:Drivers/STM32F4xx_HAL_Driver/Src/stm32f4xx_hal_i2s.c ****   assert_param(IS_I2S_FULLDUPLEX_MODE(hi2s->Init.FullDuplexMode));
 367:Drivers/STM32F4xx_HAL_Driver/Src/stm32f4xx_hal_i2s.c **** 
 368:Drivers/STM32F4xx_HAL_Driver/Src/stm32f4xx_hal_i2s.c ****   if(hi2s->Init.FullDuplexMode == I2S_FULLDUPLEXMODE_ENABLE)
 369:Drivers/STM32F4xx_HAL_Driver/Src/stm32f4xx_hal_i2s.c ****   {
 370:Drivers/STM32F4xx_HAL_Driver/Src/stm32f4xx_hal_i2s.c ****   	/* Set FullDuplex I2S IrqHandler ISR if FULLDUPLEXMODE is enabled */
 371:Drivers/STM32F4xx_HAL_Driver/Src/stm32f4xx_hal_i2s.c ****     hi2s->IrqHandlerISR = HAL_I2SEx_FullDuplex_IRQHandler;
 372:Drivers/STM32F4xx_HAL_Driver/Src/stm32f4xx_hal_i2s.c **** 
 373:Drivers/STM32F4xx_HAL_Driver/Src/stm32f4xx_hal_i2s.c ****     /* Clear I2SMOD, I2SE, I2SCFG, PCMSYNC, I2SSTD, CKPOL, DATLEN and CHLEN bits */
 374:Drivers/STM32F4xx_HAL_Driver/Src/stm32f4xx_hal_i2s.c ****     CLEAR_BIT(I2SxEXT(hi2s->Instance)->I2SCFGR,(SPI_I2SCFGR_CHLEN | SPI_I2SCFGR_DATLEN | SPI_I2SCFG
ARM GAS  C:\Users\Student\AppData\Local\Temp\ccUcoAHh.s 			page 8


 375:Drivers/STM32F4xx_HAL_Driver/Src/stm32f4xx_hal_i2s.c ****                                                 SPI_I2SCFGR_I2SSTD | SPI_I2SCFGR_PCMSYNC | SPI_I2SC
 376:Drivers/STM32F4xx_HAL_Driver/Src/stm32f4xx_hal_i2s.c ****                                                 SPI_I2SCFGR_I2SE | SPI_I2SCFGR_I2SMOD));
 377:Drivers/STM32F4xx_HAL_Driver/Src/stm32f4xx_hal_i2s.c ****     I2SxEXT(hi2s->Instance)->I2SPR = 2U;
 378:Drivers/STM32F4xx_HAL_Driver/Src/stm32f4xx_hal_i2s.c **** 
 379:Drivers/STM32F4xx_HAL_Driver/Src/stm32f4xx_hal_i2s.c ****     /* Get the I2SCFGR register value */
 380:Drivers/STM32F4xx_HAL_Driver/Src/stm32f4xx_hal_i2s.c ****     tmpreg = I2SxEXT(hi2s->Instance)->I2SCFGR;
 381:Drivers/STM32F4xx_HAL_Driver/Src/stm32f4xx_hal_i2s.c **** 
 382:Drivers/STM32F4xx_HAL_Driver/Src/stm32f4xx_hal_i2s.c ****     /* Get the mode to be configured for the extended I2S */
 383:Drivers/STM32F4xx_HAL_Driver/Src/stm32f4xx_hal_i2s.c ****     if((hi2s->Init.Mode == I2S_MODE_MASTER_TX) || (hi2s->Init.Mode == I2S_MODE_SLAVE_TX))
 384:Drivers/STM32F4xx_HAL_Driver/Src/stm32f4xx_hal_i2s.c ****     {
 385:Drivers/STM32F4xx_HAL_Driver/Src/stm32f4xx_hal_i2s.c ****       tmp = I2S_MODE_SLAVE_RX;
 386:Drivers/STM32F4xx_HAL_Driver/Src/stm32f4xx_hal_i2s.c ****     }
 387:Drivers/STM32F4xx_HAL_Driver/Src/stm32f4xx_hal_i2s.c ****     else /* I2S_MODE_MASTER_RX ||  I2S_MODE_SLAVE_RX */
 388:Drivers/STM32F4xx_HAL_Driver/Src/stm32f4xx_hal_i2s.c ****     {
 389:Drivers/STM32F4xx_HAL_Driver/Src/stm32f4xx_hal_i2s.c ****       tmp = I2S_MODE_SLAVE_TX;
 390:Drivers/STM32F4xx_HAL_Driver/Src/stm32f4xx_hal_i2s.c ****     }
 391:Drivers/STM32F4xx_HAL_Driver/Src/stm32f4xx_hal_i2s.c **** 
 392:Drivers/STM32F4xx_HAL_Driver/Src/stm32f4xx_hal_i2s.c ****     /* Configure the I2S Slave with the I2S Master parameter values */
 393:Drivers/STM32F4xx_HAL_Driver/Src/stm32f4xx_hal_i2s.c ****     tmpreg |= (uint16_t)((uint16_t)SPI_I2SCFGR_I2SMOD | (uint16_t)(tmp | \
 394:Drivers/STM32F4xx_HAL_Driver/Src/stm32f4xx_hal_i2s.c ****                          (uint16_t)(hi2s->Init.Standard | (uint16_t)(hi2s->Init.DataFormat | \
 395:Drivers/STM32F4xx_HAL_Driver/Src/stm32f4xx_hal_i2s.c ****                          (uint16_t)hi2s->Init.CPOL))));
 396:Drivers/STM32F4xx_HAL_Driver/Src/stm32f4xx_hal_i2s.c **** 
 397:Drivers/STM32F4xx_HAL_Driver/Src/stm32f4xx_hal_i2s.c ****     /* Write to SPIx I2SCFGR */
 398:Drivers/STM32F4xx_HAL_Driver/Src/stm32f4xx_hal_i2s.c ****     WRITE_REG(I2SxEXT(hi2s->Instance)->I2SCFGR,tmpreg);
 399:Drivers/STM32F4xx_HAL_Driver/Src/stm32f4xx_hal_i2s.c ****   }
 400:Drivers/STM32F4xx_HAL_Driver/Src/stm32f4xx_hal_i2s.c **** #endif /* SPI_I2S_FULLDUPLEX_SUPPORT */
 401:Drivers/STM32F4xx_HAL_Driver/Src/stm32f4xx_hal_i2s.c **** 
 402:Drivers/STM32F4xx_HAL_Driver/Src/stm32f4xx_hal_i2s.c ****   hi2s->ErrorCode = HAL_I2S_ERROR_NONE;
 403:Drivers/STM32F4xx_HAL_Driver/Src/stm32f4xx_hal_i2s.c ****   hi2s->State     = HAL_I2S_STATE_READY;
 404:Drivers/STM32F4xx_HAL_Driver/Src/stm32f4xx_hal_i2s.c **** 
 405:Drivers/STM32F4xx_HAL_Driver/Src/stm32f4xx_hal_i2s.c ****   return HAL_OK;
 406:Drivers/STM32F4xx_HAL_Driver/Src/stm32f4xx_hal_i2s.c **** }
 407:Drivers/STM32F4xx_HAL_Driver/Src/stm32f4xx_hal_i2s.c **** 
 408:Drivers/STM32F4xx_HAL_Driver/Src/stm32f4xx_hal_i2s.c **** /**
 409:Drivers/STM32F4xx_HAL_Driver/Src/stm32f4xx_hal_i2s.c ****   * @brief DeInitializes the I2S peripheral
 410:Drivers/STM32F4xx_HAL_Driver/Src/stm32f4xx_hal_i2s.c ****   * @param  hi2s: pointer to a I2S_HandleTypeDef structure that contains
 411:Drivers/STM32F4xx_HAL_Driver/Src/stm32f4xx_hal_i2s.c ****   *         the configuration information for I2S module
 412:Drivers/STM32F4xx_HAL_Driver/Src/stm32f4xx_hal_i2s.c ****   * @retval HAL status
 413:Drivers/STM32F4xx_HAL_Driver/Src/stm32f4xx_hal_i2s.c ****   */
 414:Drivers/STM32F4xx_HAL_Driver/Src/stm32f4xx_hal_i2s.c **** HAL_StatusTypeDef HAL_I2S_DeInit(I2S_HandleTypeDef *hi2s)
 415:Drivers/STM32F4xx_HAL_Driver/Src/stm32f4xx_hal_i2s.c **** {
 416:Drivers/STM32F4xx_HAL_Driver/Src/stm32f4xx_hal_i2s.c ****   /* Check the I2S handle allocation */
 417:Drivers/STM32F4xx_HAL_Driver/Src/stm32f4xx_hal_i2s.c ****   if(hi2s == NULL)
 418:Drivers/STM32F4xx_HAL_Driver/Src/stm32f4xx_hal_i2s.c ****   {
 419:Drivers/STM32F4xx_HAL_Driver/Src/stm32f4xx_hal_i2s.c ****     return HAL_ERROR;
 420:Drivers/STM32F4xx_HAL_Driver/Src/stm32f4xx_hal_i2s.c ****   }
 421:Drivers/STM32F4xx_HAL_Driver/Src/stm32f4xx_hal_i2s.c **** 
 422:Drivers/STM32F4xx_HAL_Driver/Src/stm32f4xx_hal_i2s.c ****   hi2s->State = HAL_I2S_STATE_BUSY;
 423:Drivers/STM32F4xx_HAL_Driver/Src/stm32f4xx_hal_i2s.c **** 
 424:Drivers/STM32F4xx_HAL_Driver/Src/stm32f4xx_hal_i2s.c ****   /* DeInit the low level hardware: GPIO, CLOCK, NVIC... */
 425:Drivers/STM32F4xx_HAL_Driver/Src/stm32f4xx_hal_i2s.c ****   HAL_I2S_MspDeInit(hi2s);
 426:Drivers/STM32F4xx_HAL_Driver/Src/stm32f4xx_hal_i2s.c **** 
 427:Drivers/STM32F4xx_HAL_Driver/Src/stm32f4xx_hal_i2s.c ****   hi2s->ErrorCode = HAL_I2S_ERROR_NONE;
 428:Drivers/STM32F4xx_HAL_Driver/Src/stm32f4xx_hal_i2s.c ****   hi2s->State     = HAL_I2S_STATE_RESET;
 429:Drivers/STM32F4xx_HAL_Driver/Src/stm32f4xx_hal_i2s.c **** 
 430:Drivers/STM32F4xx_HAL_Driver/Src/stm32f4xx_hal_i2s.c ****   /* Release Lock */
 431:Drivers/STM32F4xx_HAL_Driver/Src/stm32f4xx_hal_i2s.c ****   __HAL_UNLOCK(hi2s);
ARM GAS  C:\Users\Student\AppData\Local\Temp\ccUcoAHh.s 			page 9


 432:Drivers/STM32F4xx_HAL_Driver/Src/stm32f4xx_hal_i2s.c **** 
 433:Drivers/STM32F4xx_HAL_Driver/Src/stm32f4xx_hal_i2s.c ****   return HAL_OK;
 434:Drivers/STM32F4xx_HAL_Driver/Src/stm32f4xx_hal_i2s.c **** }
 435:Drivers/STM32F4xx_HAL_Driver/Src/stm32f4xx_hal_i2s.c **** 
 436:Drivers/STM32F4xx_HAL_Driver/Src/stm32f4xx_hal_i2s.c **** /**
 437:Drivers/STM32F4xx_HAL_Driver/Src/stm32f4xx_hal_i2s.c ****   * @brief I2S MSP Init
 438:Drivers/STM32F4xx_HAL_Driver/Src/stm32f4xx_hal_i2s.c ****   * @param  hi2s: pointer to a I2S_HandleTypeDef structure that contains
 439:Drivers/STM32F4xx_HAL_Driver/Src/stm32f4xx_hal_i2s.c ****   *         the configuration information for I2S module
 440:Drivers/STM32F4xx_HAL_Driver/Src/stm32f4xx_hal_i2s.c ****   * @retval None
 441:Drivers/STM32F4xx_HAL_Driver/Src/stm32f4xx_hal_i2s.c ****   */
 442:Drivers/STM32F4xx_HAL_Driver/Src/stm32f4xx_hal_i2s.c ****  __weak void HAL_I2S_MspInit(I2S_HandleTypeDef *hi2s)
 443:Drivers/STM32F4xx_HAL_Driver/Src/stm32f4xx_hal_i2s.c **** {
 444:Drivers/STM32F4xx_HAL_Driver/Src/stm32f4xx_hal_i2s.c ****   /* Prevent unused argument(s) compilation warning */
 445:Drivers/STM32F4xx_HAL_Driver/Src/stm32f4xx_hal_i2s.c ****   UNUSED(hi2s);
 446:Drivers/STM32F4xx_HAL_Driver/Src/stm32f4xx_hal_i2s.c ****   /* NOTE : This function Should not be modified, when the callback is needed,
 447:Drivers/STM32F4xx_HAL_Driver/Src/stm32f4xx_hal_i2s.c ****             the HAL_I2S_MspInit could be implemented in the user file
 448:Drivers/STM32F4xx_HAL_Driver/Src/stm32f4xx_hal_i2s.c ****    */
 449:Drivers/STM32F4xx_HAL_Driver/Src/stm32f4xx_hal_i2s.c **** }
 450:Drivers/STM32F4xx_HAL_Driver/Src/stm32f4xx_hal_i2s.c **** 
 451:Drivers/STM32F4xx_HAL_Driver/Src/stm32f4xx_hal_i2s.c **** /**
 452:Drivers/STM32F4xx_HAL_Driver/Src/stm32f4xx_hal_i2s.c ****   * @brief I2S MSP DeInit
 453:Drivers/STM32F4xx_HAL_Driver/Src/stm32f4xx_hal_i2s.c ****   * @param  hi2s: pointer to a I2S_HandleTypeDef structure that contains
 454:Drivers/STM32F4xx_HAL_Driver/Src/stm32f4xx_hal_i2s.c ****   *         the configuration information for I2S module
 455:Drivers/STM32F4xx_HAL_Driver/Src/stm32f4xx_hal_i2s.c ****   * @retval None
 456:Drivers/STM32F4xx_HAL_Driver/Src/stm32f4xx_hal_i2s.c ****   */
 457:Drivers/STM32F4xx_HAL_Driver/Src/stm32f4xx_hal_i2s.c ****  __weak void HAL_I2S_MspDeInit(I2S_HandleTypeDef *hi2s)
 458:Drivers/STM32F4xx_HAL_Driver/Src/stm32f4xx_hal_i2s.c **** {
 459:Drivers/STM32F4xx_HAL_Driver/Src/stm32f4xx_hal_i2s.c ****   /* Prevent unused argument(s) compilation warning */
 460:Drivers/STM32F4xx_HAL_Driver/Src/stm32f4xx_hal_i2s.c ****   UNUSED(hi2s);
 461:Drivers/STM32F4xx_HAL_Driver/Src/stm32f4xx_hal_i2s.c ****   /* NOTE : This function Should not be modified, when the callback is needed,
 462:Drivers/STM32F4xx_HAL_Driver/Src/stm32f4xx_hal_i2s.c ****             the HAL_I2S_MspDeInit could be implemented in the user file
 463:Drivers/STM32F4xx_HAL_Driver/Src/stm32f4xx_hal_i2s.c ****    */
 464:Drivers/STM32F4xx_HAL_Driver/Src/stm32f4xx_hal_i2s.c **** }
 465:Drivers/STM32F4xx_HAL_Driver/Src/stm32f4xx_hal_i2s.c **** /**
 466:Drivers/STM32F4xx_HAL_Driver/Src/stm32f4xx_hal_i2s.c ****   * @}
 467:Drivers/STM32F4xx_HAL_Driver/Src/stm32f4xx_hal_i2s.c ****   */
 468:Drivers/STM32F4xx_HAL_Driver/Src/stm32f4xx_hal_i2s.c **** 
 469:Drivers/STM32F4xx_HAL_Driver/Src/stm32f4xx_hal_i2s.c **** /** @addtogroup I2S_Exported_Functions_Group2
 470:Drivers/STM32F4xx_HAL_Driver/Src/stm32f4xx_hal_i2s.c ****   *  @brief Data transfers functions
 471:Drivers/STM32F4xx_HAL_Driver/Src/stm32f4xx_hal_i2s.c ****   *
 472:Drivers/STM32F4xx_HAL_Driver/Src/stm32f4xx_hal_i2s.c **** @verbatim
 473:Drivers/STM32F4xx_HAL_Driver/Src/stm32f4xx_hal_i2s.c ****  ===============================================================================
 474:Drivers/STM32F4xx_HAL_Driver/Src/stm32f4xx_hal_i2s.c ****                       ##### IO operation functions #####
 475:Drivers/STM32F4xx_HAL_Driver/Src/stm32f4xx_hal_i2s.c ****  ===============================================================================
 476:Drivers/STM32F4xx_HAL_Driver/Src/stm32f4xx_hal_i2s.c ****     [..]
 477:Drivers/STM32F4xx_HAL_Driver/Src/stm32f4xx_hal_i2s.c ****     This subsection provides a set of functions allowing to manage the I2S data
 478:Drivers/STM32F4xx_HAL_Driver/Src/stm32f4xx_hal_i2s.c ****     transfers.
 479:Drivers/STM32F4xx_HAL_Driver/Src/stm32f4xx_hal_i2s.c **** 
 480:Drivers/STM32F4xx_HAL_Driver/Src/stm32f4xx_hal_i2s.c ****     (#) There are two modes of transfer:
 481:Drivers/STM32F4xx_HAL_Driver/Src/stm32f4xx_hal_i2s.c ****        (++) Blocking mode : The communication is performed in the polling mode.
 482:Drivers/STM32F4xx_HAL_Driver/Src/stm32f4xx_hal_i2s.c ****             The status of all data processing is returned by the same function
 483:Drivers/STM32F4xx_HAL_Driver/Src/stm32f4xx_hal_i2s.c ****             after finishing transfer.
 484:Drivers/STM32F4xx_HAL_Driver/Src/stm32f4xx_hal_i2s.c ****        (++) No-Blocking mode : The communication is performed using Interrupts
 485:Drivers/STM32F4xx_HAL_Driver/Src/stm32f4xx_hal_i2s.c ****             or DMA. These functions return the status of the transfer startup.
 486:Drivers/STM32F4xx_HAL_Driver/Src/stm32f4xx_hal_i2s.c ****             The end of the data processing will be indicated through the
 487:Drivers/STM32F4xx_HAL_Driver/Src/stm32f4xx_hal_i2s.c ****             dedicated I2S IRQ when using Interrupt mode or the DMA IRQ when
 488:Drivers/STM32F4xx_HAL_Driver/Src/stm32f4xx_hal_i2s.c ****             using DMA mode.
ARM GAS  C:\Users\Student\AppData\Local\Temp\ccUcoAHh.s 			page 10


 489:Drivers/STM32F4xx_HAL_Driver/Src/stm32f4xx_hal_i2s.c **** 
 490:Drivers/STM32F4xx_HAL_Driver/Src/stm32f4xx_hal_i2s.c ****     (#) Blocking mode functions are :
 491:Drivers/STM32F4xx_HAL_Driver/Src/stm32f4xx_hal_i2s.c ****         (++) HAL_I2S_Transmit()
 492:Drivers/STM32F4xx_HAL_Driver/Src/stm32f4xx_hal_i2s.c ****         (++) HAL_I2S_Receive()
 493:Drivers/STM32F4xx_HAL_Driver/Src/stm32f4xx_hal_i2s.c **** 
 494:Drivers/STM32F4xx_HAL_Driver/Src/stm32f4xx_hal_i2s.c ****     (#) No-Blocking mode functions with Interrupt are :
 495:Drivers/STM32F4xx_HAL_Driver/Src/stm32f4xx_hal_i2s.c ****         (++) HAL_I2S_Transmit_IT()
 496:Drivers/STM32F4xx_HAL_Driver/Src/stm32f4xx_hal_i2s.c ****         (++) HAL_I2S_Receive_IT()
 497:Drivers/STM32F4xx_HAL_Driver/Src/stm32f4xx_hal_i2s.c **** 
 498:Drivers/STM32F4xx_HAL_Driver/Src/stm32f4xx_hal_i2s.c ****     (#) No-Blocking mode functions with DMA are :
 499:Drivers/STM32F4xx_HAL_Driver/Src/stm32f4xx_hal_i2s.c ****         (++) HAL_I2S_Transmit_DMA()
 500:Drivers/STM32F4xx_HAL_Driver/Src/stm32f4xx_hal_i2s.c ****         (++) HAL_I2S_Receive_DMA()
 501:Drivers/STM32F4xx_HAL_Driver/Src/stm32f4xx_hal_i2s.c **** 
 502:Drivers/STM32F4xx_HAL_Driver/Src/stm32f4xx_hal_i2s.c ****     (#) A set of Transfer Complete Callbacks are provided in non Blocking mode:
 503:Drivers/STM32F4xx_HAL_Driver/Src/stm32f4xx_hal_i2s.c ****         (++) HAL_I2S_TxCpltCallback()
 504:Drivers/STM32F4xx_HAL_Driver/Src/stm32f4xx_hal_i2s.c ****         (++) HAL_I2S_RxCpltCallback()
 505:Drivers/STM32F4xx_HAL_Driver/Src/stm32f4xx_hal_i2s.c ****         (++) HAL_I2S_ErrorCallback()
 506:Drivers/STM32F4xx_HAL_Driver/Src/stm32f4xx_hal_i2s.c **** 
 507:Drivers/STM32F4xx_HAL_Driver/Src/stm32f4xx_hal_i2s.c **** @endverbatim
 508:Drivers/STM32F4xx_HAL_Driver/Src/stm32f4xx_hal_i2s.c ****   * @{
 509:Drivers/STM32F4xx_HAL_Driver/Src/stm32f4xx_hal_i2s.c ****   */
 510:Drivers/STM32F4xx_HAL_Driver/Src/stm32f4xx_hal_i2s.c **** 
 511:Drivers/STM32F4xx_HAL_Driver/Src/stm32f4xx_hal_i2s.c **** /**
 512:Drivers/STM32F4xx_HAL_Driver/Src/stm32f4xx_hal_i2s.c ****   * @brief Transmit an amount of data in blocking mode
 513:Drivers/STM32F4xx_HAL_Driver/Src/stm32f4xx_hal_i2s.c ****   * @param  hi2s: pointer to a I2S_HandleTypeDef structure that contains
 514:Drivers/STM32F4xx_HAL_Driver/Src/stm32f4xx_hal_i2s.c ****   *         the configuration information for I2S module
 515:Drivers/STM32F4xx_HAL_Driver/Src/stm32f4xx_hal_i2s.c ****   * @param pData: a 16-bit pointer to data buffer.
 516:Drivers/STM32F4xx_HAL_Driver/Src/stm32f4xx_hal_i2s.c ****   * @param Size: number of data sample to be sent:
 517:Drivers/STM32F4xx_HAL_Driver/Src/stm32f4xx_hal_i2s.c ****   * @note When a 16-bit data frame or a 16-bit data frame extended is selected during the I2S
 518:Drivers/STM32F4xx_HAL_Driver/Src/stm32f4xx_hal_i2s.c ****   *       configuration phase, the Size parameter means the number of 16-bit data length
 519:Drivers/STM32F4xx_HAL_Driver/Src/stm32f4xx_hal_i2s.c ****   *       in the transaction and when a 24-bit data frame or a 32-bit data frame is selected
 520:Drivers/STM32F4xx_HAL_Driver/Src/stm32f4xx_hal_i2s.c ****   *       the Size parameter means the number of 16-bit data length.
 521:Drivers/STM32F4xx_HAL_Driver/Src/stm32f4xx_hal_i2s.c ****   * @param  Timeout: Timeout duration
 522:Drivers/STM32F4xx_HAL_Driver/Src/stm32f4xx_hal_i2s.c ****   * @note The I2S is kept enabled at the end of transaction to avoid the clock de-synchronization
 523:Drivers/STM32F4xx_HAL_Driver/Src/stm32f4xx_hal_i2s.c ****   *       between Master and Slave(example: audio streaming).
 524:Drivers/STM32F4xx_HAL_Driver/Src/stm32f4xx_hal_i2s.c ****   * @retval HAL status
 525:Drivers/STM32F4xx_HAL_Driver/Src/stm32f4xx_hal_i2s.c ****   */
 526:Drivers/STM32F4xx_HAL_Driver/Src/stm32f4xx_hal_i2s.c **** HAL_StatusTypeDef HAL_I2S_Transmit(I2S_HandleTypeDef *hi2s, uint16_t *pData, uint16_t Size, uint32_
 527:Drivers/STM32F4xx_HAL_Driver/Src/stm32f4xx_hal_i2s.c **** {
 528:Drivers/STM32F4xx_HAL_Driver/Src/stm32f4xx_hal_i2s.c ****   uint32_t tmp1 = 0U;
 529:Drivers/STM32F4xx_HAL_Driver/Src/stm32f4xx_hal_i2s.c **** 
 530:Drivers/STM32F4xx_HAL_Driver/Src/stm32f4xx_hal_i2s.c ****   if((pData == NULL ) || (Size == 0U))
 531:Drivers/STM32F4xx_HAL_Driver/Src/stm32f4xx_hal_i2s.c ****   {
 532:Drivers/STM32F4xx_HAL_Driver/Src/stm32f4xx_hal_i2s.c ****     return  HAL_ERROR;
 533:Drivers/STM32F4xx_HAL_Driver/Src/stm32f4xx_hal_i2s.c ****   }
 534:Drivers/STM32F4xx_HAL_Driver/Src/stm32f4xx_hal_i2s.c **** 
 535:Drivers/STM32F4xx_HAL_Driver/Src/stm32f4xx_hal_i2s.c ****   if(hi2s->State == HAL_I2S_STATE_READY)
 536:Drivers/STM32F4xx_HAL_Driver/Src/stm32f4xx_hal_i2s.c ****   {
 537:Drivers/STM32F4xx_HAL_Driver/Src/stm32f4xx_hal_i2s.c ****     tmp1 = hi2s->Instance->I2SCFGR & (SPI_I2SCFGR_DATLEN | SPI_I2SCFGR_CHLEN);
 538:Drivers/STM32F4xx_HAL_Driver/Src/stm32f4xx_hal_i2s.c **** 
 539:Drivers/STM32F4xx_HAL_Driver/Src/stm32f4xx_hal_i2s.c ****     if((tmp1 == I2S_DATAFORMAT_24B) || (tmp1 == I2S_DATAFORMAT_32B))
 540:Drivers/STM32F4xx_HAL_Driver/Src/stm32f4xx_hal_i2s.c ****     {
 541:Drivers/STM32F4xx_HAL_Driver/Src/stm32f4xx_hal_i2s.c ****       hi2s->TxXferSize  = (Size << 1U);
 542:Drivers/STM32F4xx_HAL_Driver/Src/stm32f4xx_hal_i2s.c ****       hi2s->TxXferCount = (Size << 1U);
 543:Drivers/STM32F4xx_HAL_Driver/Src/stm32f4xx_hal_i2s.c ****     }
 544:Drivers/STM32F4xx_HAL_Driver/Src/stm32f4xx_hal_i2s.c ****     else
 545:Drivers/STM32F4xx_HAL_Driver/Src/stm32f4xx_hal_i2s.c ****     {
ARM GAS  C:\Users\Student\AppData\Local\Temp\ccUcoAHh.s 			page 11


 546:Drivers/STM32F4xx_HAL_Driver/Src/stm32f4xx_hal_i2s.c ****       hi2s->TxXferSize  = Size;
 547:Drivers/STM32F4xx_HAL_Driver/Src/stm32f4xx_hal_i2s.c ****       hi2s->TxXferCount = Size;
 548:Drivers/STM32F4xx_HAL_Driver/Src/stm32f4xx_hal_i2s.c ****     }
 549:Drivers/STM32F4xx_HAL_Driver/Src/stm32f4xx_hal_i2s.c **** 
 550:Drivers/STM32F4xx_HAL_Driver/Src/stm32f4xx_hal_i2s.c ****     /* Process Locked */
 551:Drivers/STM32F4xx_HAL_Driver/Src/stm32f4xx_hal_i2s.c ****     __HAL_LOCK(hi2s);
 552:Drivers/STM32F4xx_HAL_Driver/Src/stm32f4xx_hal_i2s.c **** 
 553:Drivers/STM32F4xx_HAL_Driver/Src/stm32f4xx_hal_i2s.c ****     hi2s->ErrorCode = HAL_I2S_ERROR_NONE;
 554:Drivers/STM32F4xx_HAL_Driver/Src/stm32f4xx_hal_i2s.c ****     hi2s->State     = HAL_I2S_STATE_BUSY_TX;
 555:Drivers/STM32F4xx_HAL_Driver/Src/stm32f4xx_hal_i2s.c **** 
 556:Drivers/STM32F4xx_HAL_Driver/Src/stm32f4xx_hal_i2s.c ****     /* Check if the I2S is already enabled */
 557:Drivers/STM32F4xx_HAL_Driver/Src/stm32f4xx_hal_i2s.c ****     if((hi2s->Instance->I2SCFGR &SPI_I2SCFGR_I2SE) != SPI_I2SCFGR_I2SE)
 558:Drivers/STM32F4xx_HAL_Driver/Src/stm32f4xx_hal_i2s.c ****     {
 559:Drivers/STM32F4xx_HAL_Driver/Src/stm32f4xx_hal_i2s.c ****       /* Enable I2S peripheral */
 560:Drivers/STM32F4xx_HAL_Driver/Src/stm32f4xx_hal_i2s.c ****       __HAL_I2S_ENABLE(hi2s);
 561:Drivers/STM32F4xx_HAL_Driver/Src/stm32f4xx_hal_i2s.c ****     }
 562:Drivers/STM32F4xx_HAL_Driver/Src/stm32f4xx_hal_i2s.c **** 
 563:Drivers/STM32F4xx_HAL_Driver/Src/stm32f4xx_hal_i2s.c ****     while(hi2s->TxXferCount > 0U)
 564:Drivers/STM32F4xx_HAL_Driver/Src/stm32f4xx_hal_i2s.c ****     {
 565:Drivers/STM32F4xx_HAL_Driver/Src/stm32f4xx_hal_i2s.c ****       hi2s->Instance->DR = (*pData++);
 566:Drivers/STM32F4xx_HAL_Driver/Src/stm32f4xx_hal_i2s.c ****       hi2s->TxXferCount--;
 567:Drivers/STM32F4xx_HAL_Driver/Src/stm32f4xx_hal_i2s.c **** 
 568:Drivers/STM32F4xx_HAL_Driver/Src/stm32f4xx_hal_i2s.c ****       /* Wait until TXE flag is set */
 569:Drivers/STM32F4xx_HAL_Driver/Src/stm32f4xx_hal_i2s.c ****       if (I2S_WaitFlagStateUntilTimeout(hi2s, I2S_FLAG_TXE, SET, Timeout) != HAL_OK)
 570:Drivers/STM32F4xx_HAL_Driver/Src/stm32f4xx_hal_i2s.c ****       {
 571:Drivers/STM32F4xx_HAL_Driver/Src/stm32f4xx_hal_i2s.c ****         /* Set the error code and execute error callback*/
 572:Drivers/STM32F4xx_HAL_Driver/Src/stm32f4xx_hal_i2s.c ****         SET_BIT(hi2s->ErrorCode, HAL_I2S_ERROR_TIMEOUT);
 573:Drivers/STM32F4xx_HAL_Driver/Src/stm32f4xx_hal_i2s.c ****         HAL_I2S_ErrorCallback(hi2s);
 574:Drivers/STM32F4xx_HAL_Driver/Src/stm32f4xx_hal_i2s.c ****         return HAL_TIMEOUT;
 575:Drivers/STM32F4xx_HAL_Driver/Src/stm32f4xx_hal_i2s.c ****       }
 576:Drivers/STM32F4xx_HAL_Driver/Src/stm32f4xx_hal_i2s.c **** 
 577:Drivers/STM32F4xx_HAL_Driver/Src/stm32f4xx_hal_i2s.c ****       /* Check if an underrun occurs */
 578:Drivers/STM32F4xx_HAL_Driver/Src/stm32f4xx_hal_i2s.c ****       if(__HAL_I2S_GET_FLAG(hi2s, I2S_FLAG_UDR) == SET)
 579:Drivers/STM32F4xx_HAL_Driver/Src/stm32f4xx_hal_i2s.c ****       {
 580:Drivers/STM32F4xx_HAL_Driver/Src/stm32f4xx_hal_i2s.c ****         /* Clear underrun flag */
 581:Drivers/STM32F4xx_HAL_Driver/Src/stm32f4xx_hal_i2s.c ****         __HAL_I2S_CLEAR_UDRFLAG(hi2s);
 582:Drivers/STM32F4xx_HAL_Driver/Src/stm32f4xx_hal_i2s.c ****         /* Set the I2S State ready */
 583:Drivers/STM32F4xx_HAL_Driver/Src/stm32f4xx_hal_i2s.c ****         hi2s->State = HAL_I2S_STATE_READY;
 584:Drivers/STM32F4xx_HAL_Driver/Src/stm32f4xx_hal_i2s.c **** 
 585:Drivers/STM32F4xx_HAL_Driver/Src/stm32f4xx_hal_i2s.c ****         /* Process Unlocked */
 586:Drivers/STM32F4xx_HAL_Driver/Src/stm32f4xx_hal_i2s.c ****         __HAL_UNLOCK(hi2s);
 587:Drivers/STM32F4xx_HAL_Driver/Src/stm32f4xx_hal_i2s.c **** 
 588:Drivers/STM32F4xx_HAL_Driver/Src/stm32f4xx_hal_i2s.c ****         /* Set the error code and execute error callback*/
 589:Drivers/STM32F4xx_HAL_Driver/Src/stm32f4xx_hal_i2s.c ****         SET_BIT(hi2s->ErrorCode, HAL_I2S_ERROR_UDR);
 590:Drivers/STM32F4xx_HAL_Driver/Src/stm32f4xx_hal_i2s.c ****         HAL_I2S_ErrorCallback(hi2s);
 591:Drivers/STM32F4xx_HAL_Driver/Src/stm32f4xx_hal_i2s.c **** 
 592:Drivers/STM32F4xx_HAL_Driver/Src/stm32f4xx_hal_i2s.c ****         return HAL_ERROR;
 593:Drivers/STM32F4xx_HAL_Driver/Src/stm32f4xx_hal_i2s.c ****       }
 594:Drivers/STM32F4xx_HAL_Driver/Src/stm32f4xx_hal_i2s.c ****     }
 595:Drivers/STM32F4xx_HAL_Driver/Src/stm32f4xx_hal_i2s.c ****     hi2s->State = HAL_I2S_STATE_READY;
 596:Drivers/STM32F4xx_HAL_Driver/Src/stm32f4xx_hal_i2s.c **** 
 597:Drivers/STM32F4xx_HAL_Driver/Src/stm32f4xx_hal_i2s.c ****     /* Process Unlocked */
 598:Drivers/STM32F4xx_HAL_Driver/Src/stm32f4xx_hal_i2s.c ****     __HAL_UNLOCK(hi2s);
 599:Drivers/STM32F4xx_HAL_Driver/Src/stm32f4xx_hal_i2s.c **** 
 600:Drivers/STM32F4xx_HAL_Driver/Src/stm32f4xx_hal_i2s.c ****     return HAL_OK;
 601:Drivers/STM32F4xx_HAL_Driver/Src/stm32f4xx_hal_i2s.c ****   }
 602:Drivers/STM32F4xx_HAL_Driver/Src/stm32f4xx_hal_i2s.c ****   else
ARM GAS  C:\Users\Student\AppData\Local\Temp\ccUcoAHh.s 			page 12


 603:Drivers/STM32F4xx_HAL_Driver/Src/stm32f4xx_hal_i2s.c ****   {
 604:Drivers/STM32F4xx_HAL_Driver/Src/stm32f4xx_hal_i2s.c ****     return HAL_BUSY;
 605:Drivers/STM32F4xx_HAL_Driver/Src/stm32f4xx_hal_i2s.c ****   }
 606:Drivers/STM32F4xx_HAL_Driver/Src/stm32f4xx_hal_i2s.c **** }
 607:Drivers/STM32F4xx_HAL_Driver/Src/stm32f4xx_hal_i2s.c **** 
 608:Drivers/STM32F4xx_HAL_Driver/Src/stm32f4xx_hal_i2s.c **** /**
 609:Drivers/STM32F4xx_HAL_Driver/Src/stm32f4xx_hal_i2s.c ****   * @brief Receive an amount of data in blocking mode
 610:Drivers/STM32F4xx_HAL_Driver/Src/stm32f4xx_hal_i2s.c ****   * @param  hi2s: pointer to a I2S_HandleTypeDef structure that contains
 611:Drivers/STM32F4xx_HAL_Driver/Src/stm32f4xx_hal_i2s.c ****   *         the configuration information for I2S module
 612:Drivers/STM32F4xx_HAL_Driver/Src/stm32f4xx_hal_i2s.c ****   * @param pData: a 16-bit pointer to data buffer
 613:Drivers/STM32F4xx_HAL_Driver/Src/stm32f4xx_hal_i2s.c ****   * @param Size: number of data sample to be sent:
 614:Drivers/STM32F4xx_HAL_Driver/Src/stm32f4xx_hal_i2s.c ****   * @note When a 16-bit data frame or a 16-bit data frame extended is selected during the I2S
 615:Drivers/STM32F4xx_HAL_Driver/Src/stm32f4xx_hal_i2s.c ****   *       configuration phase, the Size parameter means the number of 16-bit data length
 616:Drivers/STM32F4xx_HAL_Driver/Src/stm32f4xx_hal_i2s.c ****   *       in the transaction and when a 24-bit data frame or a 32-bit data frame is selected
 617:Drivers/STM32F4xx_HAL_Driver/Src/stm32f4xx_hal_i2s.c ****   *       the Size parameter means the number of 16-bit data length.
 618:Drivers/STM32F4xx_HAL_Driver/Src/stm32f4xx_hal_i2s.c ****   * @param Timeout: Timeout duration
 619:Drivers/STM32F4xx_HAL_Driver/Src/stm32f4xx_hal_i2s.c ****   * @note The I2S is kept enabled at the end of transaction to avoid the clock de-synchronization
 620:Drivers/STM32F4xx_HAL_Driver/Src/stm32f4xx_hal_i2s.c ****   *       between Master and Slave(example: audio streaming)
 621:Drivers/STM32F4xx_HAL_Driver/Src/stm32f4xx_hal_i2s.c ****   * @note In I2S Master Receiver mode, just after enabling the peripheral the clock will be generat
 622:Drivers/STM32F4xx_HAL_Driver/Src/stm32f4xx_hal_i2s.c ****   *       in continuous way and as the I2S is not disabled at the end of the I2S transaction
 623:Drivers/STM32F4xx_HAL_Driver/Src/stm32f4xx_hal_i2s.c ****   * @retval HAL status
 624:Drivers/STM32F4xx_HAL_Driver/Src/stm32f4xx_hal_i2s.c ****   */
 625:Drivers/STM32F4xx_HAL_Driver/Src/stm32f4xx_hal_i2s.c **** HAL_StatusTypeDef HAL_I2S_Receive(I2S_HandleTypeDef *hi2s, uint16_t *pData, uint16_t Size, uint32_t
 626:Drivers/STM32F4xx_HAL_Driver/Src/stm32f4xx_hal_i2s.c **** {
 627:Drivers/STM32F4xx_HAL_Driver/Src/stm32f4xx_hal_i2s.c ****   uint32_t tmp1 = 0U;
 628:Drivers/STM32F4xx_HAL_Driver/Src/stm32f4xx_hal_i2s.c **** 
 629:Drivers/STM32F4xx_HAL_Driver/Src/stm32f4xx_hal_i2s.c ****   if((pData == NULL ) || (Size == 0U))
 630:Drivers/STM32F4xx_HAL_Driver/Src/stm32f4xx_hal_i2s.c ****   {
 631:Drivers/STM32F4xx_HAL_Driver/Src/stm32f4xx_hal_i2s.c ****     return  HAL_ERROR;
 632:Drivers/STM32F4xx_HAL_Driver/Src/stm32f4xx_hal_i2s.c ****   }
 633:Drivers/STM32F4xx_HAL_Driver/Src/stm32f4xx_hal_i2s.c **** 
 634:Drivers/STM32F4xx_HAL_Driver/Src/stm32f4xx_hal_i2s.c ****   if(hi2s->State == HAL_I2S_STATE_READY)
 635:Drivers/STM32F4xx_HAL_Driver/Src/stm32f4xx_hal_i2s.c ****   {
 636:Drivers/STM32F4xx_HAL_Driver/Src/stm32f4xx_hal_i2s.c ****     tmp1 = hi2s->Instance->I2SCFGR & (SPI_I2SCFGR_DATLEN | SPI_I2SCFGR_CHLEN);
 637:Drivers/STM32F4xx_HAL_Driver/Src/stm32f4xx_hal_i2s.c ****     if((tmp1 == I2S_DATAFORMAT_24B) || (tmp1 == I2S_DATAFORMAT_32B))
 638:Drivers/STM32F4xx_HAL_Driver/Src/stm32f4xx_hal_i2s.c ****     {
 639:Drivers/STM32F4xx_HAL_Driver/Src/stm32f4xx_hal_i2s.c ****       hi2s->RxXferSize  = (Size << 1U);
 640:Drivers/STM32F4xx_HAL_Driver/Src/stm32f4xx_hal_i2s.c ****       hi2s->RxXferCount = (Size << 1U);
 641:Drivers/STM32F4xx_HAL_Driver/Src/stm32f4xx_hal_i2s.c ****     }
 642:Drivers/STM32F4xx_HAL_Driver/Src/stm32f4xx_hal_i2s.c ****     else
 643:Drivers/STM32F4xx_HAL_Driver/Src/stm32f4xx_hal_i2s.c ****     {
 644:Drivers/STM32F4xx_HAL_Driver/Src/stm32f4xx_hal_i2s.c ****       hi2s->RxXferSize  = Size;
 645:Drivers/STM32F4xx_HAL_Driver/Src/stm32f4xx_hal_i2s.c ****       hi2s->RxXferCount = Size;
 646:Drivers/STM32F4xx_HAL_Driver/Src/stm32f4xx_hal_i2s.c ****     }
 647:Drivers/STM32F4xx_HAL_Driver/Src/stm32f4xx_hal_i2s.c ****     /* Process Locked */
 648:Drivers/STM32F4xx_HAL_Driver/Src/stm32f4xx_hal_i2s.c ****     __HAL_LOCK(hi2s);
 649:Drivers/STM32F4xx_HAL_Driver/Src/stm32f4xx_hal_i2s.c **** 
 650:Drivers/STM32F4xx_HAL_Driver/Src/stm32f4xx_hal_i2s.c ****     hi2s->ErrorCode = HAL_I2S_ERROR_NONE;
 651:Drivers/STM32F4xx_HAL_Driver/Src/stm32f4xx_hal_i2s.c ****     hi2s->State     = HAL_I2S_STATE_BUSY_RX;
 652:Drivers/STM32F4xx_HAL_Driver/Src/stm32f4xx_hal_i2s.c **** 
 653:Drivers/STM32F4xx_HAL_Driver/Src/stm32f4xx_hal_i2s.c ****     /* Check if the I2S is already enabled */
 654:Drivers/STM32F4xx_HAL_Driver/Src/stm32f4xx_hal_i2s.c ****     if((hi2s->Instance->I2SCFGR & SPI_I2SCFGR_I2SE) != SPI_I2SCFGR_I2SE)
 655:Drivers/STM32F4xx_HAL_Driver/Src/stm32f4xx_hal_i2s.c ****     {
 656:Drivers/STM32F4xx_HAL_Driver/Src/stm32f4xx_hal_i2s.c ****       /* Enable I2S peripheral */
 657:Drivers/STM32F4xx_HAL_Driver/Src/stm32f4xx_hal_i2s.c ****       __HAL_I2S_ENABLE(hi2s);
 658:Drivers/STM32F4xx_HAL_Driver/Src/stm32f4xx_hal_i2s.c ****     }
 659:Drivers/STM32F4xx_HAL_Driver/Src/stm32f4xx_hal_i2s.c **** 
ARM GAS  C:\Users\Student\AppData\Local\Temp\ccUcoAHh.s 			page 13


 660:Drivers/STM32F4xx_HAL_Driver/Src/stm32f4xx_hal_i2s.c ****     /* Check if Master Receiver mode is selected */
 661:Drivers/STM32F4xx_HAL_Driver/Src/stm32f4xx_hal_i2s.c ****     if((hi2s->Instance->I2SCFGR & SPI_I2SCFGR_I2SCFG) == I2S_MODE_MASTER_RX)
 662:Drivers/STM32F4xx_HAL_Driver/Src/stm32f4xx_hal_i2s.c ****     {
 663:Drivers/STM32F4xx_HAL_Driver/Src/stm32f4xx_hal_i2s.c ****       /* Clear the Overrun Flag by a read operation on the SPI_DR register followed by a read
 664:Drivers/STM32F4xx_HAL_Driver/Src/stm32f4xx_hal_i2s.c ****       access to the SPI_SR register. */
 665:Drivers/STM32F4xx_HAL_Driver/Src/stm32f4xx_hal_i2s.c ****       __HAL_I2S_CLEAR_OVRFLAG(hi2s);
 666:Drivers/STM32F4xx_HAL_Driver/Src/stm32f4xx_hal_i2s.c ****     }
 667:Drivers/STM32F4xx_HAL_Driver/Src/stm32f4xx_hal_i2s.c **** 
 668:Drivers/STM32F4xx_HAL_Driver/Src/stm32f4xx_hal_i2s.c ****     /* Receive data */
 669:Drivers/STM32F4xx_HAL_Driver/Src/stm32f4xx_hal_i2s.c ****     while(hi2s->RxXferCount > 0U)
 670:Drivers/STM32F4xx_HAL_Driver/Src/stm32f4xx_hal_i2s.c ****     {
 671:Drivers/STM32F4xx_HAL_Driver/Src/stm32f4xx_hal_i2s.c ****       /* Wait until RXNE flag is set */
 672:Drivers/STM32F4xx_HAL_Driver/Src/stm32f4xx_hal_i2s.c ****       if (I2S_WaitFlagStateUntilTimeout(hi2s, I2S_FLAG_RXNE, SET, Timeout) != HAL_OK)
 673:Drivers/STM32F4xx_HAL_Driver/Src/stm32f4xx_hal_i2s.c ****       {
 674:Drivers/STM32F4xx_HAL_Driver/Src/stm32f4xx_hal_i2s.c ****         /* Set the error code and execute error callback*/
 675:Drivers/STM32F4xx_HAL_Driver/Src/stm32f4xx_hal_i2s.c ****         SET_BIT(hi2s->ErrorCode,HAL_I2S_ERROR_TIMEOUT);
 676:Drivers/STM32F4xx_HAL_Driver/Src/stm32f4xx_hal_i2s.c ****         HAL_I2S_ErrorCallback(hi2s);
 677:Drivers/STM32F4xx_HAL_Driver/Src/stm32f4xx_hal_i2s.c ****         return HAL_TIMEOUT;
 678:Drivers/STM32F4xx_HAL_Driver/Src/stm32f4xx_hal_i2s.c ****       }
 679:Drivers/STM32F4xx_HAL_Driver/Src/stm32f4xx_hal_i2s.c **** 
 680:Drivers/STM32F4xx_HAL_Driver/Src/stm32f4xx_hal_i2s.c ****       /* Check if an overrun occurs */
 681:Drivers/STM32F4xx_HAL_Driver/Src/stm32f4xx_hal_i2s.c ****       if(__HAL_I2S_GET_FLAG(hi2s, I2S_FLAG_OVR) == SET)
 682:Drivers/STM32F4xx_HAL_Driver/Src/stm32f4xx_hal_i2s.c ****       {
 683:Drivers/STM32F4xx_HAL_Driver/Src/stm32f4xx_hal_i2s.c ****         /* Clear overrun flag */
 684:Drivers/STM32F4xx_HAL_Driver/Src/stm32f4xx_hal_i2s.c ****         __HAL_I2S_CLEAR_OVRFLAG(hi2s);
 685:Drivers/STM32F4xx_HAL_Driver/Src/stm32f4xx_hal_i2s.c **** 
 686:Drivers/STM32F4xx_HAL_Driver/Src/stm32f4xx_hal_i2s.c ****         /* Set the I2S State ready */
 687:Drivers/STM32F4xx_HAL_Driver/Src/stm32f4xx_hal_i2s.c ****         hi2s->State = HAL_I2S_STATE_READY;
 688:Drivers/STM32F4xx_HAL_Driver/Src/stm32f4xx_hal_i2s.c **** 
 689:Drivers/STM32F4xx_HAL_Driver/Src/stm32f4xx_hal_i2s.c ****         /* Process Unlocked */
 690:Drivers/STM32F4xx_HAL_Driver/Src/stm32f4xx_hal_i2s.c ****         __HAL_UNLOCK(hi2s);
 691:Drivers/STM32F4xx_HAL_Driver/Src/stm32f4xx_hal_i2s.c **** 
 692:Drivers/STM32F4xx_HAL_Driver/Src/stm32f4xx_hal_i2s.c ****         /* Set the error code and execute error callback*/
 693:Drivers/STM32F4xx_HAL_Driver/Src/stm32f4xx_hal_i2s.c ****         SET_BIT(hi2s->ErrorCode, HAL_I2S_ERROR_OVR);
 694:Drivers/STM32F4xx_HAL_Driver/Src/stm32f4xx_hal_i2s.c ****         HAL_I2S_ErrorCallback(hi2s);
 695:Drivers/STM32F4xx_HAL_Driver/Src/stm32f4xx_hal_i2s.c **** 
 696:Drivers/STM32F4xx_HAL_Driver/Src/stm32f4xx_hal_i2s.c ****         return HAL_ERROR;
 697:Drivers/STM32F4xx_HAL_Driver/Src/stm32f4xx_hal_i2s.c ****       }
 698:Drivers/STM32F4xx_HAL_Driver/Src/stm32f4xx_hal_i2s.c **** 
 699:Drivers/STM32F4xx_HAL_Driver/Src/stm32f4xx_hal_i2s.c ****       (*pData++) = hi2s->Instance->DR;
 700:Drivers/STM32F4xx_HAL_Driver/Src/stm32f4xx_hal_i2s.c ****       hi2s->RxXferCount--;
 701:Drivers/STM32F4xx_HAL_Driver/Src/stm32f4xx_hal_i2s.c ****     }
 702:Drivers/STM32F4xx_HAL_Driver/Src/stm32f4xx_hal_i2s.c **** 
 703:Drivers/STM32F4xx_HAL_Driver/Src/stm32f4xx_hal_i2s.c ****     hi2s->State = HAL_I2S_STATE_READY;
 704:Drivers/STM32F4xx_HAL_Driver/Src/stm32f4xx_hal_i2s.c **** 
 705:Drivers/STM32F4xx_HAL_Driver/Src/stm32f4xx_hal_i2s.c ****     /* Process Unlocked */
 706:Drivers/STM32F4xx_HAL_Driver/Src/stm32f4xx_hal_i2s.c ****     __HAL_UNLOCK(hi2s);
 707:Drivers/STM32F4xx_HAL_Driver/Src/stm32f4xx_hal_i2s.c **** 
 708:Drivers/STM32F4xx_HAL_Driver/Src/stm32f4xx_hal_i2s.c ****     return HAL_OK;
 709:Drivers/STM32F4xx_HAL_Driver/Src/stm32f4xx_hal_i2s.c ****   }
 710:Drivers/STM32F4xx_HAL_Driver/Src/stm32f4xx_hal_i2s.c ****   else
 711:Drivers/STM32F4xx_HAL_Driver/Src/stm32f4xx_hal_i2s.c ****   {
 712:Drivers/STM32F4xx_HAL_Driver/Src/stm32f4xx_hal_i2s.c ****     return HAL_BUSY;
 713:Drivers/STM32F4xx_HAL_Driver/Src/stm32f4xx_hal_i2s.c ****   }
 714:Drivers/STM32F4xx_HAL_Driver/Src/stm32f4xx_hal_i2s.c **** }
 715:Drivers/STM32F4xx_HAL_Driver/Src/stm32f4xx_hal_i2s.c **** 
 716:Drivers/STM32F4xx_HAL_Driver/Src/stm32f4xx_hal_i2s.c **** /**
ARM GAS  C:\Users\Student\AppData\Local\Temp\ccUcoAHh.s 			page 14


 717:Drivers/STM32F4xx_HAL_Driver/Src/stm32f4xx_hal_i2s.c ****   * @brief Transmit an amount of data in non-blocking mode with Interrupt
 718:Drivers/STM32F4xx_HAL_Driver/Src/stm32f4xx_hal_i2s.c ****   * @param  hi2s: pointer to a I2S_HandleTypeDef structure that contains
 719:Drivers/STM32F4xx_HAL_Driver/Src/stm32f4xx_hal_i2s.c ****   *         the configuration information for I2S module
 720:Drivers/STM32F4xx_HAL_Driver/Src/stm32f4xx_hal_i2s.c ****   * @param pData: a 16-bit pointer to data buffer.
 721:Drivers/STM32F4xx_HAL_Driver/Src/stm32f4xx_hal_i2s.c ****   * @param Size: number of data sample to be sent:
 722:Drivers/STM32F4xx_HAL_Driver/Src/stm32f4xx_hal_i2s.c ****   * @note When a 16-bit data frame or a 16-bit data frame extended is selected during the I2S
 723:Drivers/STM32F4xx_HAL_Driver/Src/stm32f4xx_hal_i2s.c ****   *       configuration phase, the Size parameter means the number of 16-bit data length
 724:Drivers/STM32F4xx_HAL_Driver/Src/stm32f4xx_hal_i2s.c ****   *       in the transaction and when a 24-bit data frame or a 32-bit data frame is selected
 725:Drivers/STM32F4xx_HAL_Driver/Src/stm32f4xx_hal_i2s.c ****   *       the Size parameter means the number of 16-bit data length.
 726:Drivers/STM32F4xx_HAL_Driver/Src/stm32f4xx_hal_i2s.c ****   * @note The I2S is kept enabled at the end of transaction to avoid the clock de-synchronization
 727:Drivers/STM32F4xx_HAL_Driver/Src/stm32f4xx_hal_i2s.c ****   *       between Master and Slave(example: audio streaming).
 728:Drivers/STM32F4xx_HAL_Driver/Src/stm32f4xx_hal_i2s.c ****   * @retval HAL status
 729:Drivers/STM32F4xx_HAL_Driver/Src/stm32f4xx_hal_i2s.c ****   */
 730:Drivers/STM32F4xx_HAL_Driver/Src/stm32f4xx_hal_i2s.c **** HAL_StatusTypeDef HAL_I2S_Transmit_IT(I2S_HandleTypeDef *hi2s, uint16_t *pData, uint16_t Size)
 731:Drivers/STM32F4xx_HAL_Driver/Src/stm32f4xx_hal_i2s.c **** {
 732:Drivers/STM32F4xx_HAL_Driver/Src/stm32f4xx_hal_i2s.c ****   uint32_t tmp1 = 0U;
 733:Drivers/STM32F4xx_HAL_Driver/Src/stm32f4xx_hal_i2s.c **** 
 734:Drivers/STM32F4xx_HAL_Driver/Src/stm32f4xx_hal_i2s.c ****   if(hi2s->State == HAL_I2S_STATE_READY)
 735:Drivers/STM32F4xx_HAL_Driver/Src/stm32f4xx_hal_i2s.c ****   {
 736:Drivers/STM32F4xx_HAL_Driver/Src/stm32f4xx_hal_i2s.c ****     if((pData == NULL) || (Size == 0U))
 737:Drivers/STM32F4xx_HAL_Driver/Src/stm32f4xx_hal_i2s.c ****     {
 738:Drivers/STM32F4xx_HAL_Driver/Src/stm32f4xx_hal_i2s.c ****       return  HAL_ERROR;
 739:Drivers/STM32F4xx_HAL_Driver/Src/stm32f4xx_hal_i2s.c ****     }
 740:Drivers/STM32F4xx_HAL_Driver/Src/stm32f4xx_hal_i2s.c **** 
 741:Drivers/STM32F4xx_HAL_Driver/Src/stm32f4xx_hal_i2s.c ****     hi2s->pTxBuffPtr = pData;
 742:Drivers/STM32F4xx_HAL_Driver/Src/stm32f4xx_hal_i2s.c ****     tmp1 = hi2s->Instance->I2SCFGR & (SPI_I2SCFGR_DATLEN | SPI_I2SCFGR_CHLEN);
 743:Drivers/STM32F4xx_HAL_Driver/Src/stm32f4xx_hal_i2s.c ****     if((tmp1 == I2S_DATAFORMAT_24B) || (tmp1 == I2S_DATAFORMAT_32B))
 744:Drivers/STM32F4xx_HAL_Driver/Src/stm32f4xx_hal_i2s.c ****     {
 745:Drivers/STM32F4xx_HAL_Driver/Src/stm32f4xx_hal_i2s.c ****       hi2s->TxXferSize  = (Size << 1U);
 746:Drivers/STM32F4xx_HAL_Driver/Src/stm32f4xx_hal_i2s.c ****       hi2s->TxXferCount = (Size << 1U);
 747:Drivers/STM32F4xx_HAL_Driver/Src/stm32f4xx_hal_i2s.c ****     }
 748:Drivers/STM32F4xx_HAL_Driver/Src/stm32f4xx_hal_i2s.c ****     else
 749:Drivers/STM32F4xx_HAL_Driver/Src/stm32f4xx_hal_i2s.c ****     {
 750:Drivers/STM32F4xx_HAL_Driver/Src/stm32f4xx_hal_i2s.c ****       hi2s->TxXferSize  = Size;
 751:Drivers/STM32F4xx_HAL_Driver/Src/stm32f4xx_hal_i2s.c ****       hi2s->TxXferCount = Size;
 752:Drivers/STM32F4xx_HAL_Driver/Src/stm32f4xx_hal_i2s.c ****     }
 753:Drivers/STM32F4xx_HAL_Driver/Src/stm32f4xx_hal_i2s.c **** 
 754:Drivers/STM32F4xx_HAL_Driver/Src/stm32f4xx_hal_i2s.c ****     /* Process Locked */
 755:Drivers/STM32F4xx_HAL_Driver/Src/stm32f4xx_hal_i2s.c ****     __HAL_LOCK(hi2s);
 756:Drivers/STM32F4xx_HAL_Driver/Src/stm32f4xx_hal_i2s.c **** 
 757:Drivers/STM32F4xx_HAL_Driver/Src/stm32f4xx_hal_i2s.c ****     hi2s->State     = HAL_I2S_STATE_BUSY_TX;
 758:Drivers/STM32F4xx_HAL_Driver/Src/stm32f4xx_hal_i2s.c ****     hi2s->ErrorCode = HAL_I2S_ERROR_NONE;
 759:Drivers/STM32F4xx_HAL_Driver/Src/stm32f4xx_hal_i2s.c **** 
 760:Drivers/STM32F4xx_HAL_Driver/Src/stm32f4xx_hal_i2s.c ****     /* Enable TXE and ERR interrupt */
 761:Drivers/STM32F4xx_HAL_Driver/Src/stm32f4xx_hal_i2s.c ****     __HAL_I2S_ENABLE_IT(hi2s, (I2S_IT_TXE | I2S_IT_ERR));
 762:Drivers/STM32F4xx_HAL_Driver/Src/stm32f4xx_hal_i2s.c **** 
 763:Drivers/STM32F4xx_HAL_Driver/Src/stm32f4xx_hal_i2s.c ****     /* Check if the I2S is already enabled */
 764:Drivers/STM32F4xx_HAL_Driver/Src/stm32f4xx_hal_i2s.c ****     if((hi2s->Instance->I2SCFGR &SPI_I2SCFGR_I2SE) != SPI_I2SCFGR_I2SE)
 765:Drivers/STM32F4xx_HAL_Driver/Src/stm32f4xx_hal_i2s.c ****     {
 766:Drivers/STM32F4xx_HAL_Driver/Src/stm32f4xx_hal_i2s.c ****       /* Enable I2S peripheral */
 767:Drivers/STM32F4xx_HAL_Driver/Src/stm32f4xx_hal_i2s.c ****       __HAL_I2S_ENABLE(hi2s);
 768:Drivers/STM32F4xx_HAL_Driver/Src/stm32f4xx_hal_i2s.c ****     }
 769:Drivers/STM32F4xx_HAL_Driver/Src/stm32f4xx_hal_i2s.c **** 
 770:Drivers/STM32F4xx_HAL_Driver/Src/stm32f4xx_hal_i2s.c ****     /* Process Unlocked */
 771:Drivers/STM32F4xx_HAL_Driver/Src/stm32f4xx_hal_i2s.c ****     __HAL_UNLOCK(hi2s);
 772:Drivers/STM32F4xx_HAL_Driver/Src/stm32f4xx_hal_i2s.c **** 
 773:Drivers/STM32F4xx_HAL_Driver/Src/stm32f4xx_hal_i2s.c ****     return HAL_OK;
ARM GAS  C:\Users\Student\AppData\Local\Temp\ccUcoAHh.s 			page 15


 774:Drivers/STM32F4xx_HAL_Driver/Src/stm32f4xx_hal_i2s.c ****   }
 775:Drivers/STM32F4xx_HAL_Driver/Src/stm32f4xx_hal_i2s.c ****   else
 776:Drivers/STM32F4xx_HAL_Driver/Src/stm32f4xx_hal_i2s.c ****   {
 777:Drivers/STM32F4xx_HAL_Driver/Src/stm32f4xx_hal_i2s.c ****     return HAL_BUSY;
 778:Drivers/STM32F4xx_HAL_Driver/Src/stm32f4xx_hal_i2s.c ****   }
 779:Drivers/STM32F4xx_HAL_Driver/Src/stm32f4xx_hal_i2s.c **** }
 780:Drivers/STM32F4xx_HAL_Driver/Src/stm32f4xx_hal_i2s.c **** 
 781:Drivers/STM32F4xx_HAL_Driver/Src/stm32f4xx_hal_i2s.c **** /**
 782:Drivers/STM32F4xx_HAL_Driver/Src/stm32f4xx_hal_i2s.c ****   * @brief Receive an amount of data in non-blocking mode with Interrupt
 783:Drivers/STM32F4xx_HAL_Driver/Src/stm32f4xx_hal_i2s.c ****   * @param  hi2s: pointer to a I2S_HandleTypeDef structure that contains
 784:Drivers/STM32F4xx_HAL_Driver/Src/stm32f4xx_hal_i2s.c ****   *         the configuration information for I2S module
 785:Drivers/STM32F4xx_HAL_Driver/Src/stm32f4xx_hal_i2s.c ****   * @param pData: a 16-bit pointer to the Receive data buffer.
 786:Drivers/STM32F4xx_HAL_Driver/Src/stm32f4xx_hal_i2s.c ****   * @param Size: number of data sample to be sent:
 787:Drivers/STM32F4xx_HAL_Driver/Src/stm32f4xx_hal_i2s.c ****   * @note When a 16-bit data frame or a 16-bit data frame extended is selected during the I2S
 788:Drivers/STM32F4xx_HAL_Driver/Src/stm32f4xx_hal_i2s.c ****   *       configuration phase, the Size parameter means the number of 16-bit data length
 789:Drivers/STM32F4xx_HAL_Driver/Src/stm32f4xx_hal_i2s.c ****   *       in the transaction and when a 24-bit data frame or a 32-bit data frame is selected
 790:Drivers/STM32F4xx_HAL_Driver/Src/stm32f4xx_hal_i2s.c ****   *       the Size parameter means the number of 16-bit data length.
 791:Drivers/STM32F4xx_HAL_Driver/Src/stm32f4xx_hal_i2s.c ****   * @note The I2S is kept enabled at the end of transaction to avoid the clock de-synchronization
 792:Drivers/STM32F4xx_HAL_Driver/Src/stm32f4xx_hal_i2s.c ****   *       between Master and Slave(example: audio streaming).
 793:Drivers/STM32F4xx_HAL_Driver/Src/stm32f4xx_hal_i2s.c ****   * @note It is recommended to use DMA for the I2S receiver to avoid de-synchronisation
 794:Drivers/STM32F4xx_HAL_Driver/Src/stm32f4xx_hal_i2s.c ****   * between Master and Slave otherwise the I2S interrupt should be optimized.
 795:Drivers/STM32F4xx_HAL_Driver/Src/stm32f4xx_hal_i2s.c ****   * @retval HAL status
 796:Drivers/STM32F4xx_HAL_Driver/Src/stm32f4xx_hal_i2s.c ****   */
 797:Drivers/STM32F4xx_HAL_Driver/Src/stm32f4xx_hal_i2s.c **** HAL_StatusTypeDef HAL_I2S_Receive_IT(I2S_HandleTypeDef *hi2s, uint16_t *pData, uint16_t Size)
 798:Drivers/STM32F4xx_HAL_Driver/Src/stm32f4xx_hal_i2s.c **** {
 799:Drivers/STM32F4xx_HAL_Driver/Src/stm32f4xx_hal_i2s.c ****   uint32_t tmp1 = 0U;
 800:Drivers/STM32F4xx_HAL_Driver/Src/stm32f4xx_hal_i2s.c **** 
 801:Drivers/STM32F4xx_HAL_Driver/Src/stm32f4xx_hal_i2s.c ****   if(hi2s->State == HAL_I2S_STATE_READY)
 802:Drivers/STM32F4xx_HAL_Driver/Src/stm32f4xx_hal_i2s.c ****   {
 803:Drivers/STM32F4xx_HAL_Driver/Src/stm32f4xx_hal_i2s.c ****     if((pData == NULL) || (Size == 0U))
 804:Drivers/STM32F4xx_HAL_Driver/Src/stm32f4xx_hal_i2s.c ****     {
 805:Drivers/STM32F4xx_HAL_Driver/Src/stm32f4xx_hal_i2s.c ****       return  HAL_ERROR;
 806:Drivers/STM32F4xx_HAL_Driver/Src/stm32f4xx_hal_i2s.c ****     }
 807:Drivers/STM32F4xx_HAL_Driver/Src/stm32f4xx_hal_i2s.c **** 
 808:Drivers/STM32F4xx_HAL_Driver/Src/stm32f4xx_hal_i2s.c ****     hi2s->pRxBuffPtr = pData;
 809:Drivers/STM32F4xx_HAL_Driver/Src/stm32f4xx_hal_i2s.c ****     tmp1 = hi2s->Instance->I2SCFGR & (SPI_I2SCFGR_DATLEN | SPI_I2SCFGR_CHLEN);
 810:Drivers/STM32F4xx_HAL_Driver/Src/stm32f4xx_hal_i2s.c ****     if((tmp1 == I2S_DATAFORMAT_24B) || (tmp1 == I2S_DATAFORMAT_32B))
 811:Drivers/STM32F4xx_HAL_Driver/Src/stm32f4xx_hal_i2s.c ****     {
 812:Drivers/STM32F4xx_HAL_Driver/Src/stm32f4xx_hal_i2s.c ****       hi2s->RxXferSize  = (Size << 1U);
 813:Drivers/STM32F4xx_HAL_Driver/Src/stm32f4xx_hal_i2s.c ****       hi2s->RxXferCount = (Size << 1U);
 814:Drivers/STM32F4xx_HAL_Driver/Src/stm32f4xx_hal_i2s.c ****     }
 815:Drivers/STM32F4xx_HAL_Driver/Src/stm32f4xx_hal_i2s.c ****     else
 816:Drivers/STM32F4xx_HAL_Driver/Src/stm32f4xx_hal_i2s.c ****     {
 817:Drivers/STM32F4xx_HAL_Driver/Src/stm32f4xx_hal_i2s.c ****       hi2s->RxXferSize  = Size;
 818:Drivers/STM32F4xx_HAL_Driver/Src/stm32f4xx_hal_i2s.c ****       hi2s->RxXferCount = Size;
 819:Drivers/STM32F4xx_HAL_Driver/Src/stm32f4xx_hal_i2s.c ****     }
 820:Drivers/STM32F4xx_HAL_Driver/Src/stm32f4xx_hal_i2s.c ****     /* Process Locked */
 821:Drivers/STM32F4xx_HAL_Driver/Src/stm32f4xx_hal_i2s.c ****     __HAL_LOCK(hi2s);
 822:Drivers/STM32F4xx_HAL_Driver/Src/stm32f4xx_hal_i2s.c **** 
 823:Drivers/STM32F4xx_HAL_Driver/Src/stm32f4xx_hal_i2s.c ****     hi2s->State     = HAL_I2S_STATE_BUSY_RX;
 824:Drivers/STM32F4xx_HAL_Driver/Src/stm32f4xx_hal_i2s.c ****     hi2s->ErrorCode = HAL_I2S_ERROR_NONE;
 825:Drivers/STM32F4xx_HAL_Driver/Src/stm32f4xx_hal_i2s.c **** 
 826:Drivers/STM32F4xx_HAL_Driver/Src/stm32f4xx_hal_i2s.c ****     /* Enable TXE and ERR interrupt */
 827:Drivers/STM32F4xx_HAL_Driver/Src/stm32f4xx_hal_i2s.c ****     __HAL_I2S_ENABLE_IT(hi2s, (I2S_IT_RXNE | I2S_IT_ERR));
 828:Drivers/STM32F4xx_HAL_Driver/Src/stm32f4xx_hal_i2s.c **** 
 829:Drivers/STM32F4xx_HAL_Driver/Src/stm32f4xx_hal_i2s.c ****     /* Check if the I2S is already enabled */
 830:Drivers/STM32F4xx_HAL_Driver/Src/stm32f4xx_hal_i2s.c ****     if((hi2s->Instance->I2SCFGR &SPI_I2SCFGR_I2SE) != SPI_I2SCFGR_I2SE)
ARM GAS  C:\Users\Student\AppData\Local\Temp\ccUcoAHh.s 			page 16


 831:Drivers/STM32F4xx_HAL_Driver/Src/stm32f4xx_hal_i2s.c ****     {
 832:Drivers/STM32F4xx_HAL_Driver/Src/stm32f4xx_hal_i2s.c ****       /* Enable I2S peripheral */
 833:Drivers/STM32F4xx_HAL_Driver/Src/stm32f4xx_hal_i2s.c ****       __HAL_I2S_ENABLE(hi2s);
 834:Drivers/STM32F4xx_HAL_Driver/Src/stm32f4xx_hal_i2s.c ****     }
 835:Drivers/STM32F4xx_HAL_Driver/Src/stm32f4xx_hal_i2s.c **** 
 836:Drivers/STM32F4xx_HAL_Driver/Src/stm32f4xx_hal_i2s.c ****     /* Process Unlocked */
 837:Drivers/STM32F4xx_HAL_Driver/Src/stm32f4xx_hal_i2s.c ****     __HAL_UNLOCK(hi2s);
 838:Drivers/STM32F4xx_HAL_Driver/Src/stm32f4xx_hal_i2s.c **** 
 839:Drivers/STM32F4xx_HAL_Driver/Src/stm32f4xx_hal_i2s.c ****     return HAL_OK;
 840:Drivers/STM32F4xx_HAL_Driver/Src/stm32f4xx_hal_i2s.c ****   }
 841:Drivers/STM32F4xx_HAL_Driver/Src/stm32f4xx_hal_i2s.c **** 
 842:Drivers/STM32F4xx_HAL_Driver/Src/stm32f4xx_hal_i2s.c ****   else
 843:Drivers/STM32F4xx_HAL_Driver/Src/stm32f4xx_hal_i2s.c ****   {
 844:Drivers/STM32F4xx_HAL_Driver/Src/stm32f4xx_hal_i2s.c ****     return HAL_BUSY;
 845:Drivers/STM32F4xx_HAL_Driver/Src/stm32f4xx_hal_i2s.c ****   }
 846:Drivers/STM32F4xx_HAL_Driver/Src/stm32f4xx_hal_i2s.c **** }
 847:Drivers/STM32F4xx_HAL_Driver/Src/stm32f4xx_hal_i2s.c **** 
 848:Drivers/STM32F4xx_HAL_Driver/Src/stm32f4xx_hal_i2s.c **** /**
 849:Drivers/STM32F4xx_HAL_Driver/Src/stm32f4xx_hal_i2s.c ****   * @brief Transmit an amount of data in non-blocking mode with DMA
 850:Drivers/STM32F4xx_HAL_Driver/Src/stm32f4xx_hal_i2s.c ****   * @param  hi2s: pointer to a I2S_HandleTypeDef structure that contains
 851:Drivers/STM32F4xx_HAL_Driver/Src/stm32f4xx_hal_i2s.c ****   *         the configuration information for I2S module
 852:Drivers/STM32F4xx_HAL_Driver/Src/stm32f4xx_hal_i2s.c ****   * @param pData: a 16-bit pointer to the Transmit data buffer.
 853:Drivers/STM32F4xx_HAL_Driver/Src/stm32f4xx_hal_i2s.c ****   * @param Size: number of data sample to be sent:
 854:Drivers/STM32F4xx_HAL_Driver/Src/stm32f4xx_hal_i2s.c ****   * @note When a 16-bit data frame or a 16-bit data frame extended is selected during the I2S
 855:Drivers/STM32F4xx_HAL_Driver/Src/stm32f4xx_hal_i2s.c ****   *       configuration phase, the Size parameter means the number of 16-bit data length
 856:Drivers/STM32F4xx_HAL_Driver/Src/stm32f4xx_hal_i2s.c ****   *       in the transaction and when a 24-bit data frame or a 32-bit data frame is selected
 857:Drivers/STM32F4xx_HAL_Driver/Src/stm32f4xx_hal_i2s.c ****   *       the Size parameter means the number of 16-bit data length.
 858:Drivers/STM32F4xx_HAL_Driver/Src/stm32f4xx_hal_i2s.c ****   * @note The I2S is kept enabled at the end of transaction to avoid the clock de-synchronization
 859:Drivers/STM32F4xx_HAL_Driver/Src/stm32f4xx_hal_i2s.c ****   *       between Master and Slave(example: audio streaming).
 860:Drivers/STM32F4xx_HAL_Driver/Src/stm32f4xx_hal_i2s.c ****   * @retval HAL status
 861:Drivers/STM32F4xx_HAL_Driver/Src/stm32f4xx_hal_i2s.c ****   */
 862:Drivers/STM32F4xx_HAL_Driver/Src/stm32f4xx_hal_i2s.c **** HAL_StatusTypeDef HAL_I2S_Transmit_DMA(I2S_HandleTypeDef *hi2s, uint16_t *pData, uint16_t Size)
 863:Drivers/STM32F4xx_HAL_Driver/Src/stm32f4xx_hal_i2s.c **** {
 864:Drivers/STM32F4xx_HAL_Driver/Src/stm32f4xx_hal_i2s.c ****   uint32_t *tmp = NULL;
 865:Drivers/STM32F4xx_HAL_Driver/Src/stm32f4xx_hal_i2s.c ****   uint32_t tmp1 = 0U;
 866:Drivers/STM32F4xx_HAL_Driver/Src/stm32f4xx_hal_i2s.c **** 
 867:Drivers/STM32F4xx_HAL_Driver/Src/stm32f4xx_hal_i2s.c ****   if((pData == NULL) || (Size == 0U))
 868:Drivers/STM32F4xx_HAL_Driver/Src/stm32f4xx_hal_i2s.c ****   {
 869:Drivers/STM32F4xx_HAL_Driver/Src/stm32f4xx_hal_i2s.c ****     return  HAL_ERROR;
 870:Drivers/STM32F4xx_HAL_Driver/Src/stm32f4xx_hal_i2s.c ****   }
 871:Drivers/STM32F4xx_HAL_Driver/Src/stm32f4xx_hal_i2s.c **** 
 872:Drivers/STM32F4xx_HAL_Driver/Src/stm32f4xx_hal_i2s.c ****   if(hi2s->State == HAL_I2S_STATE_READY)
 873:Drivers/STM32F4xx_HAL_Driver/Src/stm32f4xx_hal_i2s.c ****   {
 874:Drivers/STM32F4xx_HAL_Driver/Src/stm32f4xx_hal_i2s.c ****     hi2s->pTxBuffPtr = pData;
 875:Drivers/STM32F4xx_HAL_Driver/Src/stm32f4xx_hal_i2s.c ****     tmp1 = hi2s->Instance->I2SCFGR & (SPI_I2SCFGR_DATLEN | SPI_I2SCFGR_CHLEN);
 876:Drivers/STM32F4xx_HAL_Driver/Src/stm32f4xx_hal_i2s.c ****     if((tmp1 == I2S_DATAFORMAT_24B) || (tmp1 == I2S_DATAFORMAT_32B))
 877:Drivers/STM32F4xx_HAL_Driver/Src/stm32f4xx_hal_i2s.c ****     {
 878:Drivers/STM32F4xx_HAL_Driver/Src/stm32f4xx_hal_i2s.c ****       hi2s->TxXferSize  = (Size << 1U);
 879:Drivers/STM32F4xx_HAL_Driver/Src/stm32f4xx_hal_i2s.c ****       hi2s->TxXferCount = (Size << 1U);
 880:Drivers/STM32F4xx_HAL_Driver/Src/stm32f4xx_hal_i2s.c ****     }
 881:Drivers/STM32F4xx_HAL_Driver/Src/stm32f4xx_hal_i2s.c ****     else
 882:Drivers/STM32F4xx_HAL_Driver/Src/stm32f4xx_hal_i2s.c ****     {
 883:Drivers/STM32F4xx_HAL_Driver/Src/stm32f4xx_hal_i2s.c ****       hi2s->TxXferSize  = Size;
 884:Drivers/STM32F4xx_HAL_Driver/Src/stm32f4xx_hal_i2s.c ****       hi2s->TxXferCount = Size;
 885:Drivers/STM32F4xx_HAL_Driver/Src/stm32f4xx_hal_i2s.c ****     }
 886:Drivers/STM32F4xx_HAL_Driver/Src/stm32f4xx_hal_i2s.c **** 
 887:Drivers/STM32F4xx_HAL_Driver/Src/stm32f4xx_hal_i2s.c ****     /* Process Locked */
ARM GAS  C:\Users\Student\AppData\Local\Temp\ccUcoAHh.s 			page 17


 888:Drivers/STM32F4xx_HAL_Driver/Src/stm32f4xx_hal_i2s.c ****     __HAL_LOCK(hi2s);
 889:Drivers/STM32F4xx_HAL_Driver/Src/stm32f4xx_hal_i2s.c **** 
 890:Drivers/STM32F4xx_HAL_Driver/Src/stm32f4xx_hal_i2s.c ****     hi2s->ErrorCode = HAL_I2S_ERROR_NONE;
 891:Drivers/STM32F4xx_HAL_Driver/Src/stm32f4xx_hal_i2s.c ****     hi2s->State     = HAL_I2S_STATE_BUSY_TX;
 892:Drivers/STM32F4xx_HAL_Driver/Src/stm32f4xx_hal_i2s.c **** 
 893:Drivers/STM32F4xx_HAL_Driver/Src/stm32f4xx_hal_i2s.c ****     /* Set the I2S Tx DMA Half transfer complete callback */
 894:Drivers/STM32F4xx_HAL_Driver/Src/stm32f4xx_hal_i2s.c ****     hi2s->hdmatx->XferHalfCpltCallback = I2S_DMATxHalfCplt;
 895:Drivers/STM32F4xx_HAL_Driver/Src/stm32f4xx_hal_i2s.c **** 
 896:Drivers/STM32F4xx_HAL_Driver/Src/stm32f4xx_hal_i2s.c ****     /* Set the I2S Tx DMA transfer complete callback */
 897:Drivers/STM32F4xx_HAL_Driver/Src/stm32f4xx_hal_i2s.c ****     hi2s->hdmatx->XferCpltCallback = I2S_DMATxCplt;
 898:Drivers/STM32F4xx_HAL_Driver/Src/stm32f4xx_hal_i2s.c **** 
 899:Drivers/STM32F4xx_HAL_Driver/Src/stm32f4xx_hal_i2s.c ****     /* Set the DMA error callback */
 900:Drivers/STM32F4xx_HAL_Driver/Src/stm32f4xx_hal_i2s.c ****     hi2s->hdmatx->XferErrorCallback = I2S_DMAError;
 901:Drivers/STM32F4xx_HAL_Driver/Src/stm32f4xx_hal_i2s.c **** 
 902:Drivers/STM32F4xx_HAL_Driver/Src/stm32f4xx_hal_i2s.c ****     /* Enable the Tx DMA Stream */
 903:Drivers/STM32F4xx_HAL_Driver/Src/stm32f4xx_hal_i2s.c ****     tmp = (uint32_t*)&pData;
 904:Drivers/STM32F4xx_HAL_Driver/Src/stm32f4xx_hal_i2s.c ****     HAL_DMA_Start_IT(hi2s->hdmatx, *(uint32_t*)tmp, (uint32_t)&hi2s->Instance->DR, hi2s->TxXferSize
 905:Drivers/STM32F4xx_HAL_Driver/Src/stm32f4xx_hal_i2s.c **** 
 906:Drivers/STM32F4xx_HAL_Driver/Src/stm32f4xx_hal_i2s.c ****     /* Check if the I2S is already enabled */
 907:Drivers/STM32F4xx_HAL_Driver/Src/stm32f4xx_hal_i2s.c ****     if((hi2s->Instance->I2SCFGR &SPI_I2SCFGR_I2SE) != SPI_I2SCFGR_I2SE)
 908:Drivers/STM32F4xx_HAL_Driver/Src/stm32f4xx_hal_i2s.c ****     {
 909:Drivers/STM32F4xx_HAL_Driver/Src/stm32f4xx_hal_i2s.c ****       /* Enable I2S peripheral */
 910:Drivers/STM32F4xx_HAL_Driver/Src/stm32f4xx_hal_i2s.c ****       __HAL_I2S_ENABLE(hi2s);
 911:Drivers/STM32F4xx_HAL_Driver/Src/stm32f4xx_hal_i2s.c ****     }
 912:Drivers/STM32F4xx_HAL_Driver/Src/stm32f4xx_hal_i2s.c **** 
 913:Drivers/STM32F4xx_HAL_Driver/Src/stm32f4xx_hal_i2s.c ****      /* Check if the I2S Tx request is already enabled */
 914:Drivers/STM32F4xx_HAL_Driver/Src/stm32f4xx_hal_i2s.c ****     if((hi2s->Instance->CR2 & SPI_CR2_TXDMAEN) != SPI_CR2_TXDMAEN)
 915:Drivers/STM32F4xx_HAL_Driver/Src/stm32f4xx_hal_i2s.c ****     {
 916:Drivers/STM32F4xx_HAL_Driver/Src/stm32f4xx_hal_i2s.c ****       /* Enable Tx DMA Request */
 917:Drivers/STM32F4xx_HAL_Driver/Src/stm32f4xx_hal_i2s.c ****       SET_BIT(hi2s->Instance->CR2, SPI_CR2_TXDMAEN);
 918:Drivers/STM32F4xx_HAL_Driver/Src/stm32f4xx_hal_i2s.c ****     }
 919:Drivers/STM32F4xx_HAL_Driver/Src/stm32f4xx_hal_i2s.c **** 
 920:Drivers/STM32F4xx_HAL_Driver/Src/stm32f4xx_hal_i2s.c ****     /* Process Unlocked */
 921:Drivers/STM32F4xx_HAL_Driver/Src/stm32f4xx_hal_i2s.c ****     __HAL_UNLOCK(hi2s);
 922:Drivers/STM32F4xx_HAL_Driver/Src/stm32f4xx_hal_i2s.c **** 
 923:Drivers/STM32F4xx_HAL_Driver/Src/stm32f4xx_hal_i2s.c ****     return HAL_OK;
 924:Drivers/STM32F4xx_HAL_Driver/Src/stm32f4xx_hal_i2s.c ****   }
 925:Drivers/STM32F4xx_HAL_Driver/Src/stm32f4xx_hal_i2s.c ****   else
 926:Drivers/STM32F4xx_HAL_Driver/Src/stm32f4xx_hal_i2s.c ****   {
 927:Drivers/STM32F4xx_HAL_Driver/Src/stm32f4xx_hal_i2s.c ****     return HAL_BUSY;
 928:Drivers/STM32F4xx_HAL_Driver/Src/stm32f4xx_hal_i2s.c ****   }
 929:Drivers/STM32F4xx_HAL_Driver/Src/stm32f4xx_hal_i2s.c **** }
 930:Drivers/STM32F4xx_HAL_Driver/Src/stm32f4xx_hal_i2s.c **** 
 931:Drivers/STM32F4xx_HAL_Driver/Src/stm32f4xx_hal_i2s.c **** /**
 932:Drivers/STM32F4xx_HAL_Driver/Src/stm32f4xx_hal_i2s.c ****   * @brief Receive an amount of data in non-blocking mode with DMA
 933:Drivers/STM32F4xx_HAL_Driver/Src/stm32f4xx_hal_i2s.c ****   * @param  hi2s: pointer to a I2S_HandleTypeDef structure that contains
 934:Drivers/STM32F4xx_HAL_Driver/Src/stm32f4xx_hal_i2s.c ****   *         the configuration information for I2S module
 935:Drivers/STM32F4xx_HAL_Driver/Src/stm32f4xx_hal_i2s.c ****   * @param pData: a 16-bit pointer to the Receive data buffer.
 936:Drivers/STM32F4xx_HAL_Driver/Src/stm32f4xx_hal_i2s.c ****   * @param Size: number of data sample to be sent:
 937:Drivers/STM32F4xx_HAL_Driver/Src/stm32f4xx_hal_i2s.c ****   * @note When a 16-bit data frame or a 16-bit data frame extended is selected during the I2S
 938:Drivers/STM32F4xx_HAL_Driver/Src/stm32f4xx_hal_i2s.c ****   *       configuration phase, the Size parameter means the number of 16-bit data length
 939:Drivers/STM32F4xx_HAL_Driver/Src/stm32f4xx_hal_i2s.c ****   *       in the transaction and when a 24-bit data frame or a 32-bit data frame is selected
 940:Drivers/STM32F4xx_HAL_Driver/Src/stm32f4xx_hal_i2s.c ****   *       the Size parameter means the number of 16-bit data length.
 941:Drivers/STM32F4xx_HAL_Driver/Src/stm32f4xx_hal_i2s.c ****   * @note The I2S is kept enabled at the end of transaction to avoid the clock de-synchronization
 942:Drivers/STM32F4xx_HAL_Driver/Src/stm32f4xx_hal_i2s.c ****   *       between Master and Slave(example: audio streaming).
 943:Drivers/STM32F4xx_HAL_Driver/Src/stm32f4xx_hal_i2s.c ****   * @retval HAL status
 944:Drivers/STM32F4xx_HAL_Driver/Src/stm32f4xx_hal_i2s.c ****   */
ARM GAS  C:\Users\Student\AppData\Local\Temp\ccUcoAHh.s 			page 18


 945:Drivers/STM32F4xx_HAL_Driver/Src/stm32f4xx_hal_i2s.c **** HAL_StatusTypeDef HAL_I2S_Receive_DMA(I2S_HandleTypeDef *hi2s, uint16_t *pData, uint16_t Size)
 946:Drivers/STM32F4xx_HAL_Driver/Src/stm32f4xx_hal_i2s.c **** {
 947:Drivers/STM32F4xx_HAL_Driver/Src/stm32f4xx_hal_i2s.c ****   uint32_t *tmp = NULL;
 948:Drivers/STM32F4xx_HAL_Driver/Src/stm32f4xx_hal_i2s.c ****   uint32_t tmp1 = 0U;
 949:Drivers/STM32F4xx_HAL_Driver/Src/stm32f4xx_hal_i2s.c **** 
 950:Drivers/STM32F4xx_HAL_Driver/Src/stm32f4xx_hal_i2s.c ****   if((pData == NULL) || (Size == 0U))
 951:Drivers/STM32F4xx_HAL_Driver/Src/stm32f4xx_hal_i2s.c ****   {
 952:Drivers/STM32F4xx_HAL_Driver/Src/stm32f4xx_hal_i2s.c ****     return  HAL_ERROR;
 953:Drivers/STM32F4xx_HAL_Driver/Src/stm32f4xx_hal_i2s.c ****   }
 954:Drivers/STM32F4xx_HAL_Driver/Src/stm32f4xx_hal_i2s.c **** 
 955:Drivers/STM32F4xx_HAL_Driver/Src/stm32f4xx_hal_i2s.c ****   if(hi2s->State == HAL_I2S_STATE_READY)
 956:Drivers/STM32F4xx_HAL_Driver/Src/stm32f4xx_hal_i2s.c ****   {
 957:Drivers/STM32F4xx_HAL_Driver/Src/stm32f4xx_hal_i2s.c ****     hi2s->pRxBuffPtr = pData;
 958:Drivers/STM32F4xx_HAL_Driver/Src/stm32f4xx_hal_i2s.c ****     tmp1 = hi2s->Instance->I2SCFGR & (SPI_I2SCFGR_DATLEN | SPI_I2SCFGR_CHLEN);
 959:Drivers/STM32F4xx_HAL_Driver/Src/stm32f4xx_hal_i2s.c ****     if((tmp1 == I2S_DATAFORMAT_24B) || (tmp1 == I2S_DATAFORMAT_32B))
 960:Drivers/STM32F4xx_HAL_Driver/Src/stm32f4xx_hal_i2s.c ****     {
 961:Drivers/STM32F4xx_HAL_Driver/Src/stm32f4xx_hal_i2s.c ****       hi2s->RxXferSize  = (Size << 1U);
 962:Drivers/STM32F4xx_HAL_Driver/Src/stm32f4xx_hal_i2s.c ****       hi2s->RxXferCount = (Size << 1U);
 963:Drivers/STM32F4xx_HAL_Driver/Src/stm32f4xx_hal_i2s.c ****     }
 964:Drivers/STM32F4xx_HAL_Driver/Src/stm32f4xx_hal_i2s.c ****     else
 965:Drivers/STM32F4xx_HAL_Driver/Src/stm32f4xx_hal_i2s.c ****     {
 966:Drivers/STM32F4xx_HAL_Driver/Src/stm32f4xx_hal_i2s.c ****       hi2s->RxXferSize  = Size;
 967:Drivers/STM32F4xx_HAL_Driver/Src/stm32f4xx_hal_i2s.c ****       hi2s->RxXferCount = Size;
 968:Drivers/STM32F4xx_HAL_Driver/Src/stm32f4xx_hal_i2s.c ****     }
 969:Drivers/STM32F4xx_HAL_Driver/Src/stm32f4xx_hal_i2s.c ****     /* Process Locked */
 970:Drivers/STM32F4xx_HAL_Driver/Src/stm32f4xx_hal_i2s.c ****     __HAL_LOCK(hi2s);
 971:Drivers/STM32F4xx_HAL_Driver/Src/stm32f4xx_hal_i2s.c **** 
 972:Drivers/STM32F4xx_HAL_Driver/Src/stm32f4xx_hal_i2s.c ****     hi2s->State     = HAL_I2S_STATE_BUSY_RX;
 973:Drivers/STM32F4xx_HAL_Driver/Src/stm32f4xx_hal_i2s.c ****     hi2s->ErrorCode = HAL_I2S_ERROR_NONE;
 974:Drivers/STM32F4xx_HAL_Driver/Src/stm32f4xx_hal_i2s.c **** 
 975:Drivers/STM32F4xx_HAL_Driver/Src/stm32f4xx_hal_i2s.c ****     /* Set the I2S Rx DMA Half transfer complete callback */
 976:Drivers/STM32F4xx_HAL_Driver/Src/stm32f4xx_hal_i2s.c ****     hi2s->hdmarx->XferHalfCpltCallback = I2S_DMARxHalfCplt;
 977:Drivers/STM32F4xx_HAL_Driver/Src/stm32f4xx_hal_i2s.c **** 
 978:Drivers/STM32F4xx_HAL_Driver/Src/stm32f4xx_hal_i2s.c ****     /* Set the I2S Rx DMA transfer complete callback */
 979:Drivers/STM32F4xx_HAL_Driver/Src/stm32f4xx_hal_i2s.c ****     hi2s->hdmarx->XferCpltCallback = I2S_DMARxCplt;
 980:Drivers/STM32F4xx_HAL_Driver/Src/stm32f4xx_hal_i2s.c **** 
 981:Drivers/STM32F4xx_HAL_Driver/Src/stm32f4xx_hal_i2s.c ****     /* Set the DMA error callback */
 982:Drivers/STM32F4xx_HAL_Driver/Src/stm32f4xx_hal_i2s.c ****     hi2s->hdmarx->XferErrorCallback = I2S_DMAError;
 983:Drivers/STM32F4xx_HAL_Driver/Src/stm32f4xx_hal_i2s.c **** 
 984:Drivers/STM32F4xx_HAL_Driver/Src/stm32f4xx_hal_i2s.c ****     /* Check if Master Receiver mode is selected */
 985:Drivers/STM32F4xx_HAL_Driver/Src/stm32f4xx_hal_i2s.c ****     if((hi2s->Instance->I2SCFGR & SPI_I2SCFGR_I2SCFG) == I2S_MODE_MASTER_RX)
 986:Drivers/STM32F4xx_HAL_Driver/Src/stm32f4xx_hal_i2s.c ****     {
 987:Drivers/STM32F4xx_HAL_Driver/Src/stm32f4xx_hal_i2s.c ****       /* Clear the Overrun Flag by a read operation to the SPI_DR register followed by a read
 988:Drivers/STM32F4xx_HAL_Driver/Src/stm32f4xx_hal_i2s.c ****       access to the SPI_SR register. */
 989:Drivers/STM32F4xx_HAL_Driver/Src/stm32f4xx_hal_i2s.c ****       __HAL_I2S_CLEAR_OVRFLAG(hi2s);
 990:Drivers/STM32F4xx_HAL_Driver/Src/stm32f4xx_hal_i2s.c ****     }
 991:Drivers/STM32F4xx_HAL_Driver/Src/stm32f4xx_hal_i2s.c **** 
 992:Drivers/STM32F4xx_HAL_Driver/Src/stm32f4xx_hal_i2s.c ****     /* Enable the Rx DMA Stream */
 993:Drivers/STM32F4xx_HAL_Driver/Src/stm32f4xx_hal_i2s.c ****     tmp = (uint32_t*)&pData;
 994:Drivers/STM32F4xx_HAL_Driver/Src/stm32f4xx_hal_i2s.c ****     HAL_DMA_Start_IT(hi2s->hdmarx, (uint32_t)&hi2s->Instance->DR, *(uint32_t*)tmp, hi2s->RxXferSize
 995:Drivers/STM32F4xx_HAL_Driver/Src/stm32f4xx_hal_i2s.c **** 
 996:Drivers/STM32F4xx_HAL_Driver/Src/stm32f4xx_hal_i2s.c ****     /* Check if the I2S is already enabled */
 997:Drivers/STM32F4xx_HAL_Driver/Src/stm32f4xx_hal_i2s.c ****     if((hi2s->Instance->I2SCFGR &SPI_I2SCFGR_I2SE) != SPI_I2SCFGR_I2SE)
 998:Drivers/STM32F4xx_HAL_Driver/Src/stm32f4xx_hal_i2s.c ****     {
 999:Drivers/STM32F4xx_HAL_Driver/Src/stm32f4xx_hal_i2s.c ****       /* Enable I2S peripheral */
1000:Drivers/STM32F4xx_HAL_Driver/Src/stm32f4xx_hal_i2s.c ****       __HAL_I2S_ENABLE(hi2s);
1001:Drivers/STM32F4xx_HAL_Driver/Src/stm32f4xx_hal_i2s.c ****     }
ARM GAS  C:\Users\Student\AppData\Local\Temp\ccUcoAHh.s 			page 19


1002:Drivers/STM32F4xx_HAL_Driver/Src/stm32f4xx_hal_i2s.c **** 
1003:Drivers/STM32F4xx_HAL_Driver/Src/stm32f4xx_hal_i2s.c ****      /* Check if the I2S Rx request is already enabled */
1004:Drivers/STM32F4xx_HAL_Driver/Src/stm32f4xx_hal_i2s.c ****     if((hi2s->Instance->CR2 &SPI_CR2_RXDMAEN) != SPI_CR2_RXDMAEN)
1005:Drivers/STM32F4xx_HAL_Driver/Src/stm32f4xx_hal_i2s.c ****     {
1006:Drivers/STM32F4xx_HAL_Driver/Src/stm32f4xx_hal_i2s.c ****       /* Enable Rx DMA Request */
1007:Drivers/STM32F4xx_HAL_Driver/Src/stm32f4xx_hal_i2s.c ****       SET_BIT(hi2s->Instance->CR2,SPI_CR2_RXDMAEN);
1008:Drivers/STM32F4xx_HAL_Driver/Src/stm32f4xx_hal_i2s.c ****     }
1009:Drivers/STM32F4xx_HAL_Driver/Src/stm32f4xx_hal_i2s.c **** 
1010:Drivers/STM32F4xx_HAL_Driver/Src/stm32f4xx_hal_i2s.c ****     /* Process Unlocked */
1011:Drivers/STM32F4xx_HAL_Driver/Src/stm32f4xx_hal_i2s.c ****     __HAL_UNLOCK(hi2s);
1012:Drivers/STM32F4xx_HAL_Driver/Src/stm32f4xx_hal_i2s.c **** 
1013:Drivers/STM32F4xx_HAL_Driver/Src/stm32f4xx_hal_i2s.c ****     return HAL_OK;
1014:Drivers/STM32F4xx_HAL_Driver/Src/stm32f4xx_hal_i2s.c ****   }
1015:Drivers/STM32F4xx_HAL_Driver/Src/stm32f4xx_hal_i2s.c ****   else
1016:Drivers/STM32F4xx_HAL_Driver/Src/stm32f4xx_hal_i2s.c ****   {
1017:Drivers/STM32F4xx_HAL_Driver/Src/stm32f4xx_hal_i2s.c ****     return HAL_BUSY;
1018:Drivers/STM32F4xx_HAL_Driver/Src/stm32f4xx_hal_i2s.c ****   }
1019:Drivers/STM32F4xx_HAL_Driver/Src/stm32f4xx_hal_i2s.c **** }
1020:Drivers/STM32F4xx_HAL_Driver/Src/stm32f4xx_hal_i2s.c **** 
1021:Drivers/STM32F4xx_HAL_Driver/Src/stm32f4xx_hal_i2s.c **** /**
1022:Drivers/STM32F4xx_HAL_Driver/Src/stm32f4xx_hal_i2s.c ****   * @brief Pauses the audio stream playing from the Media.
1023:Drivers/STM32F4xx_HAL_Driver/Src/stm32f4xx_hal_i2s.c ****   * @param  hi2s: pointer to a I2S_HandleTypeDef structure that contains
1024:Drivers/STM32F4xx_HAL_Driver/Src/stm32f4xx_hal_i2s.c ****   *         the configuration information for I2S module
1025:Drivers/STM32F4xx_HAL_Driver/Src/stm32f4xx_hal_i2s.c ****   * @retval HAL status
1026:Drivers/STM32F4xx_HAL_Driver/Src/stm32f4xx_hal_i2s.c ****   */
1027:Drivers/STM32F4xx_HAL_Driver/Src/stm32f4xx_hal_i2s.c **** HAL_StatusTypeDef HAL_I2S_DMAPause(I2S_HandleTypeDef *hi2s)
1028:Drivers/STM32F4xx_HAL_Driver/Src/stm32f4xx_hal_i2s.c **** {
1029:Drivers/STM32F4xx_HAL_Driver/Src/stm32f4xx_hal_i2s.c ****   /* Process Locked */
1030:Drivers/STM32F4xx_HAL_Driver/Src/stm32f4xx_hal_i2s.c ****   __HAL_LOCK(hi2s);
1031:Drivers/STM32F4xx_HAL_Driver/Src/stm32f4xx_hal_i2s.c **** 
1032:Drivers/STM32F4xx_HAL_Driver/Src/stm32f4xx_hal_i2s.c ****   if(hi2s->State == HAL_I2S_STATE_BUSY_TX)
1033:Drivers/STM32F4xx_HAL_Driver/Src/stm32f4xx_hal_i2s.c ****   {
1034:Drivers/STM32F4xx_HAL_Driver/Src/stm32f4xx_hal_i2s.c ****     /* Disable the I2S DMA Tx request */
1035:Drivers/STM32F4xx_HAL_Driver/Src/stm32f4xx_hal_i2s.c ****     CLEAR_BIT(hi2s->Instance->CR2,SPI_CR2_TXDMAEN);
1036:Drivers/STM32F4xx_HAL_Driver/Src/stm32f4xx_hal_i2s.c ****   }
1037:Drivers/STM32F4xx_HAL_Driver/Src/stm32f4xx_hal_i2s.c ****   else if(hi2s->State == HAL_I2S_STATE_BUSY_RX)
1038:Drivers/STM32F4xx_HAL_Driver/Src/stm32f4xx_hal_i2s.c ****   {
1039:Drivers/STM32F4xx_HAL_Driver/Src/stm32f4xx_hal_i2s.c ****     /* Disable the I2S DMA Rx request */
1040:Drivers/STM32F4xx_HAL_Driver/Src/stm32f4xx_hal_i2s.c ****     CLEAR_BIT(hi2s->Instance->CR2,SPI_CR2_RXDMAEN);
1041:Drivers/STM32F4xx_HAL_Driver/Src/stm32f4xx_hal_i2s.c ****   }
1042:Drivers/STM32F4xx_HAL_Driver/Src/stm32f4xx_hal_i2s.c **** #if defined (SPI_I2S_FULLDUPLEX_SUPPORT)
1043:Drivers/STM32F4xx_HAL_Driver/Src/stm32f4xx_hal_i2s.c ****   else if(hi2s->State == HAL_I2S_STATE_BUSY_TX_RX)
1044:Drivers/STM32F4xx_HAL_Driver/Src/stm32f4xx_hal_i2s.c ****   {
1045:Drivers/STM32F4xx_HAL_Driver/Src/stm32f4xx_hal_i2s.c ****     /* Pause the audio file playing by disabling the I2S DMA request */
1046:Drivers/STM32F4xx_HAL_Driver/Src/stm32f4xx_hal_i2s.c ****     CLEAR_BIT(hi2s->Instance->CR2,(SPI_CR2_TXDMAEN|SPI_CR2_RXDMAEN));
1047:Drivers/STM32F4xx_HAL_Driver/Src/stm32f4xx_hal_i2s.c ****     CLEAR_BIT(I2SxEXT(hi2s->Instance)->CR2,(SPI_CR2_TXDMAEN|SPI_CR2_RXDMAEN));
1048:Drivers/STM32F4xx_HAL_Driver/Src/stm32f4xx_hal_i2s.c ****   }
1049:Drivers/STM32F4xx_HAL_Driver/Src/stm32f4xx_hal_i2s.c **** #endif /* SPI_I2S_FULLDUPLEX_SUPPORT */
1050:Drivers/STM32F4xx_HAL_Driver/Src/stm32f4xx_hal_i2s.c **** 
1051:Drivers/STM32F4xx_HAL_Driver/Src/stm32f4xx_hal_i2s.c ****   /* Process Unlocked */
1052:Drivers/STM32F4xx_HAL_Driver/Src/stm32f4xx_hal_i2s.c ****   __HAL_UNLOCK(hi2s);
1053:Drivers/STM32F4xx_HAL_Driver/Src/stm32f4xx_hal_i2s.c **** 
1054:Drivers/STM32F4xx_HAL_Driver/Src/stm32f4xx_hal_i2s.c ****   return HAL_OK;
1055:Drivers/STM32F4xx_HAL_Driver/Src/stm32f4xx_hal_i2s.c **** }
1056:Drivers/STM32F4xx_HAL_Driver/Src/stm32f4xx_hal_i2s.c **** 
1057:Drivers/STM32F4xx_HAL_Driver/Src/stm32f4xx_hal_i2s.c **** /**
1058:Drivers/STM32F4xx_HAL_Driver/Src/stm32f4xx_hal_i2s.c ****   * @brief Resumes the audio stream playing from the Media.
ARM GAS  C:\Users\Student\AppData\Local\Temp\ccUcoAHh.s 			page 20


1059:Drivers/STM32F4xx_HAL_Driver/Src/stm32f4xx_hal_i2s.c ****   * @param  hi2s: pointer to a I2S_HandleTypeDef structure that contains
1060:Drivers/STM32F4xx_HAL_Driver/Src/stm32f4xx_hal_i2s.c ****   *         the configuration information for I2S module
1061:Drivers/STM32F4xx_HAL_Driver/Src/stm32f4xx_hal_i2s.c ****   * @retval HAL status
1062:Drivers/STM32F4xx_HAL_Driver/Src/stm32f4xx_hal_i2s.c ****   */
1063:Drivers/STM32F4xx_HAL_Driver/Src/stm32f4xx_hal_i2s.c **** HAL_StatusTypeDef HAL_I2S_DMAResume(I2S_HandleTypeDef *hi2s)
1064:Drivers/STM32F4xx_HAL_Driver/Src/stm32f4xx_hal_i2s.c **** {
1065:Drivers/STM32F4xx_HAL_Driver/Src/stm32f4xx_hal_i2s.c ****   /* Process Locked */
1066:Drivers/STM32F4xx_HAL_Driver/Src/stm32f4xx_hal_i2s.c ****   __HAL_LOCK(hi2s);
1067:Drivers/STM32F4xx_HAL_Driver/Src/stm32f4xx_hal_i2s.c **** 
1068:Drivers/STM32F4xx_HAL_Driver/Src/stm32f4xx_hal_i2s.c ****   if(hi2s->State == HAL_I2S_STATE_BUSY_TX)
1069:Drivers/STM32F4xx_HAL_Driver/Src/stm32f4xx_hal_i2s.c ****   {
1070:Drivers/STM32F4xx_HAL_Driver/Src/stm32f4xx_hal_i2s.c ****     /* Enable the I2S DMA Tx request */
1071:Drivers/STM32F4xx_HAL_Driver/Src/stm32f4xx_hal_i2s.c ****     SET_BIT(hi2s->Instance->CR2,SPI_CR2_TXDMAEN);
1072:Drivers/STM32F4xx_HAL_Driver/Src/stm32f4xx_hal_i2s.c ****   }
1073:Drivers/STM32F4xx_HAL_Driver/Src/stm32f4xx_hal_i2s.c ****   else if(hi2s->State == HAL_I2S_STATE_BUSY_RX)
1074:Drivers/STM32F4xx_HAL_Driver/Src/stm32f4xx_hal_i2s.c ****   {
1075:Drivers/STM32F4xx_HAL_Driver/Src/stm32f4xx_hal_i2s.c ****     /* Enable the I2S DMA Rx request */
1076:Drivers/STM32F4xx_HAL_Driver/Src/stm32f4xx_hal_i2s.c ****     SET_BIT(hi2s->Instance->CR2,SPI_CR2_RXDMAEN);
1077:Drivers/STM32F4xx_HAL_Driver/Src/stm32f4xx_hal_i2s.c ****   }
1078:Drivers/STM32F4xx_HAL_Driver/Src/stm32f4xx_hal_i2s.c **** #if defined (SPI_I2S_FULLDUPLEX_SUPPORT)
1079:Drivers/STM32F4xx_HAL_Driver/Src/stm32f4xx_hal_i2s.c ****   else if(hi2s->State == HAL_I2S_STATE_BUSY_TX_RX)
1080:Drivers/STM32F4xx_HAL_Driver/Src/stm32f4xx_hal_i2s.c ****   {
1081:Drivers/STM32F4xx_HAL_Driver/Src/stm32f4xx_hal_i2s.c ****     /* Pause the audio file playing by disabling the I2S DMA request */
1082:Drivers/STM32F4xx_HAL_Driver/Src/stm32f4xx_hal_i2s.c ****     SET_BIT(hi2s->Instance->CR2,(SPI_CR2_RXDMAEN | SPI_CR2_TXDMAEN));
1083:Drivers/STM32F4xx_HAL_Driver/Src/stm32f4xx_hal_i2s.c ****     SET_BIT(I2SxEXT(hi2s->Instance)->CR2,(SPI_CR2_RXDMAEN | SPI_CR2_TXDMAEN));
1084:Drivers/STM32F4xx_HAL_Driver/Src/stm32f4xx_hal_i2s.c **** 
1085:Drivers/STM32F4xx_HAL_Driver/Src/stm32f4xx_hal_i2s.c ****     /* If the I2Sext peripheral is still not enabled, enable it */
1086:Drivers/STM32F4xx_HAL_Driver/Src/stm32f4xx_hal_i2s.c ****     if ((I2SxEXT(hi2s->Instance)->I2SCFGR & SPI_I2SCFGR_I2SE) == 0U)
1087:Drivers/STM32F4xx_HAL_Driver/Src/stm32f4xx_hal_i2s.c ****     {
1088:Drivers/STM32F4xx_HAL_Driver/Src/stm32f4xx_hal_i2s.c ****       /* Enable I2Sext peripheral */
1089:Drivers/STM32F4xx_HAL_Driver/Src/stm32f4xx_hal_i2s.c ****       __HAL_I2SEXT_ENABLE(hi2s);
1090:Drivers/STM32F4xx_HAL_Driver/Src/stm32f4xx_hal_i2s.c ****     }
1091:Drivers/STM32F4xx_HAL_Driver/Src/stm32f4xx_hal_i2s.c ****   }
1092:Drivers/STM32F4xx_HAL_Driver/Src/stm32f4xx_hal_i2s.c **** #endif /* SPI_I2S_FULLDUPLEX_SUPPORT */
1093:Drivers/STM32F4xx_HAL_Driver/Src/stm32f4xx_hal_i2s.c **** 
1094:Drivers/STM32F4xx_HAL_Driver/Src/stm32f4xx_hal_i2s.c ****   /* If the I2S peripheral is still not enabled, enable it */
1095:Drivers/STM32F4xx_HAL_Driver/Src/stm32f4xx_hal_i2s.c ****   if ((hi2s->Instance->I2SCFGR & SPI_I2SCFGR_I2SE) == 0U)
1096:Drivers/STM32F4xx_HAL_Driver/Src/stm32f4xx_hal_i2s.c ****   {
1097:Drivers/STM32F4xx_HAL_Driver/Src/stm32f4xx_hal_i2s.c ****     /* Enable I2S peripheral */
1098:Drivers/STM32F4xx_HAL_Driver/Src/stm32f4xx_hal_i2s.c ****     __HAL_I2S_ENABLE(hi2s);
1099:Drivers/STM32F4xx_HAL_Driver/Src/stm32f4xx_hal_i2s.c ****   }
1100:Drivers/STM32F4xx_HAL_Driver/Src/stm32f4xx_hal_i2s.c **** 
1101:Drivers/STM32F4xx_HAL_Driver/Src/stm32f4xx_hal_i2s.c ****   /* Process Unlocked */
1102:Drivers/STM32F4xx_HAL_Driver/Src/stm32f4xx_hal_i2s.c ****   __HAL_UNLOCK(hi2s);
1103:Drivers/STM32F4xx_HAL_Driver/Src/stm32f4xx_hal_i2s.c **** 
1104:Drivers/STM32F4xx_HAL_Driver/Src/stm32f4xx_hal_i2s.c ****   return HAL_OK;
1105:Drivers/STM32F4xx_HAL_Driver/Src/stm32f4xx_hal_i2s.c **** }
1106:Drivers/STM32F4xx_HAL_Driver/Src/stm32f4xx_hal_i2s.c **** 
1107:Drivers/STM32F4xx_HAL_Driver/Src/stm32f4xx_hal_i2s.c **** /**
1108:Drivers/STM32F4xx_HAL_Driver/Src/stm32f4xx_hal_i2s.c ****   * @brief Resumes the audio stream playing from the Media.
1109:Drivers/STM32F4xx_HAL_Driver/Src/stm32f4xx_hal_i2s.c ****   * @param  hi2s: pointer to a I2S_HandleTypeDef structure that contains
1110:Drivers/STM32F4xx_HAL_Driver/Src/stm32f4xx_hal_i2s.c ****   *         the configuration information for I2S module
1111:Drivers/STM32F4xx_HAL_Driver/Src/stm32f4xx_hal_i2s.c ****   * @retval HAL status
1112:Drivers/STM32F4xx_HAL_Driver/Src/stm32f4xx_hal_i2s.c ****   */
1113:Drivers/STM32F4xx_HAL_Driver/Src/stm32f4xx_hal_i2s.c **** HAL_StatusTypeDef HAL_I2S_DMAStop(I2S_HandleTypeDef *hi2s)
1114:Drivers/STM32F4xx_HAL_Driver/Src/stm32f4xx_hal_i2s.c **** {
1115:Drivers/STM32F4xx_HAL_Driver/Src/stm32f4xx_hal_i2s.c ****   /* Process Locked */
ARM GAS  C:\Users\Student\AppData\Local\Temp\ccUcoAHh.s 			page 21


1116:Drivers/STM32F4xx_HAL_Driver/Src/stm32f4xx_hal_i2s.c ****   __HAL_LOCK(hi2s);
1117:Drivers/STM32F4xx_HAL_Driver/Src/stm32f4xx_hal_i2s.c **** 
1118:Drivers/STM32F4xx_HAL_Driver/Src/stm32f4xx_hal_i2s.c ****   if(hi2s->State == HAL_I2S_STATE_BUSY_TX)
1119:Drivers/STM32F4xx_HAL_Driver/Src/stm32f4xx_hal_i2s.c ****   {
1120:Drivers/STM32F4xx_HAL_Driver/Src/stm32f4xx_hal_i2s.c ****     /* Disable the I2S DMA requests */
1121:Drivers/STM32F4xx_HAL_Driver/Src/stm32f4xx_hal_i2s.c ****     CLEAR_BIT(hi2s->Instance->CR2,SPI_CR2_TXDMAEN);
1122:Drivers/STM32F4xx_HAL_Driver/Src/stm32f4xx_hal_i2s.c **** 
1123:Drivers/STM32F4xx_HAL_Driver/Src/stm32f4xx_hal_i2s.c ****     /* Disable the I2S DMA Channel */
1124:Drivers/STM32F4xx_HAL_Driver/Src/stm32f4xx_hal_i2s.c ****     HAL_DMA_Abort(hi2s->hdmatx);
1125:Drivers/STM32F4xx_HAL_Driver/Src/stm32f4xx_hal_i2s.c ****   }
1126:Drivers/STM32F4xx_HAL_Driver/Src/stm32f4xx_hal_i2s.c ****   else if(hi2s->State == HAL_I2S_STATE_BUSY_RX)
1127:Drivers/STM32F4xx_HAL_Driver/Src/stm32f4xx_hal_i2s.c ****   {
1128:Drivers/STM32F4xx_HAL_Driver/Src/stm32f4xx_hal_i2s.c ****     /* Disable the I2S DMA requests */
1129:Drivers/STM32F4xx_HAL_Driver/Src/stm32f4xx_hal_i2s.c ****     CLEAR_BIT(hi2s->Instance->CR2,SPI_CR2_RXDMAEN);
1130:Drivers/STM32F4xx_HAL_Driver/Src/stm32f4xx_hal_i2s.c **** 
1131:Drivers/STM32F4xx_HAL_Driver/Src/stm32f4xx_hal_i2s.c ****     /* Disable the I2S DMA Channel */
1132:Drivers/STM32F4xx_HAL_Driver/Src/stm32f4xx_hal_i2s.c ****     HAL_DMA_Abort(hi2s->hdmarx);
1133:Drivers/STM32F4xx_HAL_Driver/Src/stm32f4xx_hal_i2s.c ****   }
1134:Drivers/STM32F4xx_HAL_Driver/Src/stm32f4xx_hal_i2s.c **** #if defined (SPI_I2S_FULLDUPLEX_SUPPORT)
1135:Drivers/STM32F4xx_HAL_Driver/Src/stm32f4xx_hal_i2s.c ****   else if(hi2s->State == HAL_I2S_STATE_BUSY_TX_RX)
1136:Drivers/STM32F4xx_HAL_Driver/Src/stm32f4xx_hal_i2s.c ****   {
1137:Drivers/STM32F4xx_HAL_Driver/Src/stm32f4xx_hal_i2s.c ****     /* Disable the I2S DMA requests */
1138:Drivers/STM32F4xx_HAL_Driver/Src/stm32f4xx_hal_i2s.c ****     CLEAR_BIT(hi2s->Instance->CR2,(SPI_CR2_RXDMAEN | SPI_CR2_TXDMAEN));
1139:Drivers/STM32F4xx_HAL_Driver/Src/stm32f4xx_hal_i2s.c ****     CLEAR_BIT(I2SxEXT(hi2s->Instance)->CR2,(SPI_CR2_RXDMAEN | SPI_CR2_TXDMAEN));
1140:Drivers/STM32F4xx_HAL_Driver/Src/stm32f4xx_hal_i2s.c **** 
1141:Drivers/STM32F4xx_HAL_Driver/Src/stm32f4xx_hal_i2s.c ****     /* Disable the I2S DMA Channels */
1142:Drivers/STM32F4xx_HAL_Driver/Src/stm32f4xx_hal_i2s.c ****     HAL_DMA_Abort(hi2s->hdmatx);
1143:Drivers/STM32F4xx_HAL_Driver/Src/stm32f4xx_hal_i2s.c ****     HAL_DMA_Abort(hi2s->hdmarx);
1144:Drivers/STM32F4xx_HAL_Driver/Src/stm32f4xx_hal_i2s.c **** 
1145:Drivers/STM32F4xx_HAL_Driver/Src/stm32f4xx_hal_i2s.c ****     /* Disable I2Sext peripheral */
1146:Drivers/STM32F4xx_HAL_Driver/Src/stm32f4xx_hal_i2s.c ****     __HAL_I2SEXT_DISABLE(hi2s);
1147:Drivers/STM32F4xx_HAL_Driver/Src/stm32f4xx_hal_i2s.c ****   }
1148:Drivers/STM32F4xx_HAL_Driver/Src/stm32f4xx_hal_i2s.c **** #endif /* SPI_I2S_FULLDUPLEX_SUPPORT */
1149:Drivers/STM32F4xx_HAL_Driver/Src/stm32f4xx_hal_i2s.c **** 
1150:Drivers/STM32F4xx_HAL_Driver/Src/stm32f4xx_hal_i2s.c ****   /* Disable I2S peripheral */
1151:Drivers/STM32F4xx_HAL_Driver/Src/stm32f4xx_hal_i2s.c ****   __HAL_I2S_DISABLE(hi2s);
1152:Drivers/STM32F4xx_HAL_Driver/Src/stm32f4xx_hal_i2s.c **** 
1153:Drivers/STM32F4xx_HAL_Driver/Src/stm32f4xx_hal_i2s.c ****   hi2s->State = HAL_I2S_STATE_READY;
1154:Drivers/STM32F4xx_HAL_Driver/Src/stm32f4xx_hal_i2s.c **** 
1155:Drivers/STM32F4xx_HAL_Driver/Src/stm32f4xx_hal_i2s.c ****   /* Process Unlocked */
1156:Drivers/STM32F4xx_HAL_Driver/Src/stm32f4xx_hal_i2s.c ****   __HAL_UNLOCK(hi2s);
1157:Drivers/STM32F4xx_HAL_Driver/Src/stm32f4xx_hal_i2s.c **** 
1158:Drivers/STM32F4xx_HAL_Driver/Src/stm32f4xx_hal_i2s.c ****   return HAL_OK;
1159:Drivers/STM32F4xx_HAL_Driver/Src/stm32f4xx_hal_i2s.c **** }
1160:Drivers/STM32F4xx_HAL_Driver/Src/stm32f4xx_hal_i2s.c **** 
1161:Drivers/STM32F4xx_HAL_Driver/Src/stm32f4xx_hal_i2s.c **** /**
1162:Drivers/STM32F4xx_HAL_Driver/Src/stm32f4xx_hal_i2s.c ****   * @brief  This function handles I2S interrupt request.
1163:Drivers/STM32F4xx_HAL_Driver/Src/stm32f4xx_hal_i2s.c ****   * @param  hi2s: pointer to a I2S_HandleTypeDef structure that contains
1164:Drivers/STM32F4xx_HAL_Driver/Src/stm32f4xx_hal_i2s.c ****   *         the configuration information for I2S module
1165:Drivers/STM32F4xx_HAL_Driver/Src/stm32f4xx_hal_i2s.c ****   * @retval None
1166:Drivers/STM32F4xx_HAL_Driver/Src/stm32f4xx_hal_i2s.c ****   */
1167:Drivers/STM32F4xx_HAL_Driver/Src/stm32f4xx_hal_i2s.c **** void HAL_I2S_IRQHandler(I2S_HandleTypeDef *hi2s)
1168:Drivers/STM32F4xx_HAL_Driver/Src/stm32f4xx_hal_i2s.c **** {
1169:Drivers/STM32F4xx_HAL_Driver/Src/stm32f4xx_hal_i2s.c ****   /* Call the IrqHandler ISR set during HAL_I2S_INIT */
1170:Drivers/STM32F4xx_HAL_Driver/Src/stm32f4xx_hal_i2s.c ****   hi2s->IrqHandlerISR(hi2s);
1171:Drivers/STM32F4xx_HAL_Driver/Src/stm32f4xx_hal_i2s.c **** }
1172:Drivers/STM32F4xx_HAL_Driver/Src/stm32f4xx_hal_i2s.c **** 
ARM GAS  C:\Users\Student\AppData\Local\Temp\ccUcoAHh.s 			page 22


1173:Drivers/STM32F4xx_HAL_Driver/Src/stm32f4xx_hal_i2s.c **** /**
1174:Drivers/STM32F4xx_HAL_Driver/Src/stm32f4xx_hal_i2s.c ****   * @brief Tx Transfer Half completed callbacks
1175:Drivers/STM32F4xx_HAL_Driver/Src/stm32f4xx_hal_i2s.c ****   * @param  hi2s: pointer to a I2S_HandleTypeDef structure that contains
1176:Drivers/STM32F4xx_HAL_Driver/Src/stm32f4xx_hal_i2s.c ****   *         the configuration information for I2S module
1177:Drivers/STM32F4xx_HAL_Driver/Src/stm32f4xx_hal_i2s.c ****   * @retval None
1178:Drivers/STM32F4xx_HAL_Driver/Src/stm32f4xx_hal_i2s.c ****   */
1179:Drivers/STM32F4xx_HAL_Driver/Src/stm32f4xx_hal_i2s.c ****  __weak void HAL_I2S_TxHalfCpltCallback(I2S_HandleTypeDef *hi2s)
1180:Drivers/STM32F4xx_HAL_Driver/Src/stm32f4xx_hal_i2s.c **** {
1181:Drivers/STM32F4xx_HAL_Driver/Src/stm32f4xx_hal_i2s.c ****   /* Prevent unused argument(s) compilation warning */
1182:Drivers/STM32F4xx_HAL_Driver/Src/stm32f4xx_hal_i2s.c ****   UNUSED(hi2s);
1183:Drivers/STM32F4xx_HAL_Driver/Src/stm32f4xx_hal_i2s.c ****   /* NOTE : This function Should not be modified, when the callback is needed,
1184:Drivers/STM32F4xx_HAL_Driver/Src/stm32f4xx_hal_i2s.c ****             the HAL_I2S_TxHalfCpltCallback could be implemented in the user file
1185:Drivers/STM32F4xx_HAL_Driver/Src/stm32f4xx_hal_i2s.c ****    */
1186:Drivers/STM32F4xx_HAL_Driver/Src/stm32f4xx_hal_i2s.c **** }
1187:Drivers/STM32F4xx_HAL_Driver/Src/stm32f4xx_hal_i2s.c **** 
1188:Drivers/STM32F4xx_HAL_Driver/Src/stm32f4xx_hal_i2s.c **** /**
1189:Drivers/STM32F4xx_HAL_Driver/Src/stm32f4xx_hal_i2s.c ****   * @brief Tx Transfer completed callbacks
1190:Drivers/STM32F4xx_HAL_Driver/Src/stm32f4xx_hal_i2s.c ****   * @param  hi2s: pointer to a I2S_HandleTypeDef structure that contains
1191:Drivers/STM32F4xx_HAL_Driver/Src/stm32f4xx_hal_i2s.c ****   *         the configuration information for I2S module
1192:Drivers/STM32F4xx_HAL_Driver/Src/stm32f4xx_hal_i2s.c ****   * @retval None
1193:Drivers/STM32F4xx_HAL_Driver/Src/stm32f4xx_hal_i2s.c ****   */
1194:Drivers/STM32F4xx_HAL_Driver/Src/stm32f4xx_hal_i2s.c ****  __weak void HAL_I2S_TxCpltCallback(I2S_HandleTypeDef *hi2s)
1195:Drivers/STM32F4xx_HAL_Driver/Src/stm32f4xx_hal_i2s.c **** {
1196:Drivers/STM32F4xx_HAL_Driver/Src/stm32f4xx_hal_i2s.c ****   /* Prevent unused argument(s) compilation warning */
1197:Drivers/STM32F4xx_HAL_Driver/Src/stm32f4xx_hal_i2s.c ****   UNUSED(hi2s);
1198:Drivers/STM32F4xx_HAL_Driver/Src/stm32f4xx_hal_i2s.c ****   /* NOTE : This function Should not be modified, when the callback is needed,
1199:Drivers/STM32F4xx_HAL_Driver/Src/stm32f4xx_hal_i2s.c ****             the HAL_I2S_TxCpltCallback could be implemented in the user file
1200:Drivers/STM32F4xx_HAL_Driver/Src/stm32f4xx_hal_i2s.c ****    */
1201:Drivers/STM32F4xx_HAL_Driver/Src/stm32f4xx_hal_i2s.c **** }
1202:Drivers/STM32F4xx_HAL_Driver/Src/stm32f4xx_hal_i2s.c **** 
1203:Drivers/STM32F4xx_HAL_Driver/Src/stm32f4xx_hal_i2s.c **** /**
1204:Drivers/STM32F4xx_HAL_Driver/Src/stm32f4xx_hal_i2s.c ****   * @brief Rx Transfer half completed callbacks
1205:Drivers/STM32F4xx_HAL_Driver/Src/stm32f4xx_hal_i2s.c ****   * @param  hi2s: pointer to a I2S_HandleTypeDef structure that contains
1206:Drivers/STM32F4xx_HAL_Driver/Src/stm32f4xx_hal_i2s.c ****   *         the configuration information for I2S module
1207:Drivers/STM32F4xx_HAL_Driver/Src/stm32f4xx_hal_i2s.c ****   * @retval None
1208:Drivers/STM32F4xx_HAL_Driver/Src/stm32f4xx_hal_i2s.c ****   */
1209:Drivers/STM32F4xx_HAL_Driver/Src/stm32f4xx_hal_i2s.c **** __weak void HAL_I2S_RxHalfCpltCallback(I2S_HandleTypeDef *hi2s)
1210:Drivers/STM32F4xx_HAL_Driver/Src/stm32f4xx_hal_i2s.c **** {
1211:Drivers/STM32F4xx_HAL_Driver/Src/stm32f4xx_hal_i2s.c ****   /* Prevent unused argument(s) compilation warning */
1212:Drivers/STM32F4xx_HAL_Driver/Src/stm32f4xx_hal_i2s.c ****   UNUSED(hi2s);
1213:Drivers/STM32F4xx_HAL_Driver/Src/stm32f4xx_hal_i2s.c ****   /* NOTE : This function Should not be modified, when the callback is needed,
1214:Drivers/STM32F4xx_HAL_Driver/Src/stm32f4xx_hal_i2s.c ****             the HAL_I2S_RxCpltCallback could be implemented in the user file
1215:Drivers/STM32F4xx_HAL_Driver/Src/stm32f4xx_hal_i2s.c ****    */
1216:Drivers/STM32F4xx_HAL_Driver/Src/stm32f4xx_hal_i2s.c **** }
1217:Drivers/STM32F4xx_HAL_Driver/Src/stm32f4xx_hal_i2s.c **** 
1218:Drivers/STM32F4xx_HAL_Driver/Src/stm32f4xx_hal_i2s.c **** /**
1219:Drivers/STM32F4xx_HAL_Driver/Src/stm32f4xx_hal_i2s.c ****   * @brief Rx Transfer completed callbacks
1220:Drivers/STM32F4xx_HAL_Driver/Src/stm32f4xx_hal_i2s.c ****   * @param  hi2s: pointer to a I2S_HandleTypeDef structure that contains
1221:Drivers/STM32F4xx_HAL_Driver/Src/stm32f4xx_hal_i2s.c ****   *         the configuration information for I2S module
1222:Drivers/STM32F4xx_HAL_Driver/Src/stm32f4xx_hal_i2s.c ****   * @retval None
1223:Drivers/STM32F4xx_HAL_Driver/Src/stm32f4xx_hal_i2s.c ****   */
1224:Drivers/STM32F4xx_HAL_Driver/Src/stm32f4xx_hal_i2s.c **** __weak void HAL_I2S_RxCpltCallback(I2S_HandleTypeDef *hi2s)
1225:Drivers/STM32F4xx_HAL_Driver/Src/stm32f4xx_hal_i2s.c **** {
1226:Drivers/STM32F4xx_HAL_Driver/Src/stm32f4xx_hal_i2s.c ****   /* Prevent unused argument(s) compilation warning */
1227:Drivers/STM32F4xx_HAL_Driver/Src/stm32f4xx_hal_i2s.c ****   UNUSED(hi2s);
1228:Drivers/STM32F4xx_HAL_Driver/Src/stm32f4xx_hal_i2s.c ****   /* NOTE : This function Should not be modified, when the callback is needed,
1229:Drivers/STM32F4xx_HAL_Driver/Src/stm32f4xx_hal_i2s.c ****             the HAL_I2S_RxCpltCallback could be implemented in the user file
ARM GAS  C:\Users\Student\AppData\Local\Temp\ccUcoAHh.s 			page 23


1230:Drivers/STM32F4xx_HAL_Driver/Src/stm32f4xx_hal_i2s.c ****    */
1231:Drivers/STM32F4xx_HAL_Driver/Src/stm32f4xx_hal_i2s.c **** }
1232:Drivers/STM32F4xx_HAL_Driver/Src/stm32f4xx_hal_i2s.c **** 
1233:Drivers/STM32F4xx_HAL_Driver/Src/stm32f4xx_hal_i2s.c **** /**
1234:Drivers/STM32F4xx_HAL_Driver/Src/stm32f4xx_hal_i2s.c ****   * @brief I2S error callbacks
1235:Drivers/STM32F4xx_HAL_Driver/Src/stm32f4xx_hal_i2s.c ****   * @param  hi2s: pointer to a I2S_HandleTypeDef structure that contains
1236:Drivers/STM32F4xx_HAL_Driver/Src/stm32f4xx_hal_i2s.c ****   *         the configuration information for I2S module
1237:Drivers/STM32F4xx_HAL_Driver/Src/stm32f4xx_hal_i2s.c ****   * @retval None
1238:Drivers/STM32F4xx_HAL_Driver/Src/stm32f4xx_hal_i2s.c ****   */
1239:Drivers/STM32F4xx_HAL_Driver/Src/stm32f4xx_hal_i2s.c ****  __weak void HAL_I2S_ErrorCallback(I2S_HandleTypeDef *hi2s)
1240:Drivers/STM32F4xx_HAL_Driver/Src/stm32f4xx_hal_i2s.c **** {
1241:Drivers/STM32F4xx_HAL_Driver/Src/stm32f4xx_hal_i2s.c ****   /* Prevent unused argument(s) compilation warning */
1242:Drivers/STM32F4xx_HAL_Driver/Src/stm32f4xx_hal_i2s.c ****   UNUSED(hi2s);
1243:Drivers/STM32F4xx_HAL_Driver/Src/stm32f4xx_hal_i2s.c ****   /* NOTE : This function Should not be modified, when the callback is needed,
1244:Drivers/STM32F4xx_HAL_Driver/Src/stm32f4xx_hal_i2s.c ****             the HAL_I2S_ErrorCallback could be implemented in the user file
1245:Drivers/STM32F4xx_HAL_Driver/Src/stm32f4xx_hal_i2s.c ****    */
1246:Drivers/STM32F4xx_HAL_Driver/Src/stm32f4xx_hal_i2s.c **** }
1247:Drivers/STM32F4xx_HAL_Driver/Src/stm32f4xx_hal_i2s.c **** 
1248:Drivers/STM32F4xx_HAL_Driver/Src/stm32f4xx_hal_i2s.c **** /**
1249:Drivers/STM32F4xx_HAL_Driver/Src/stm32f4xx_hal_i2s.c ****   * @}
1250:Drivers/STM32F4xx_HAL_Driver/Src/stm32f4xx_hal_i2s.c ****   */
1251:Drivers/STM32F4xx_HAL_Driver/Src/stm32f4xx_hal_i2s.c **** 
1252:Drivers/STM32F4xx_HAL_Driver/Src/stm32f4xx_hal_i2s.c **** /** @addtogroup I2S_Exported_Functions_Group3
1253:Drivers/STM32F4xx_HAL_Driver/Src/stm32f4xx_hal_i2s.c ****   *  @brief   Peripheral State functions
1254:Drivers/STM32F4xx_HAL_Driver/Src/stm32f4xx_hal_i2s.c ****   *
1255:Drivers/STM32F4xx_HAL_Driver/Src/stm32f4xx_hal_i2s.c **** @verbatim
1256:Drivers/STM32F4xx_HAL_Driver/Src/stm32f4xx_hal_i2s.c ****  ===============================================================================
1257:Drivers/STM32F4xx_HAL_Driver/Src/stm32f4xx_hal_i2s.c ****                       ##### Peripheral State and Errors functions #####
1258:Drivers/STM32F4xx_HAL_Driver/Src/stm32f4xx_hal_i2s.c ****  ===============================================================================
1259:Drivers/STM32F4xx_HAL_Driver/Src/stm32f4xx_hal_i2s.c ****     [..]
1260:Drivers/STM32F4xx_HAL_Driver/Src/stm32f4xx_hal_i2s.c ****     This subsection permits to get in run-time the status of the peripheral
1261:Drivers/STM32F4xx_HAL_Driver/Src/stm32f4xx_hal_i2s.c ****     and the data flow.
1262:Drivers/STM32F4xx_HAL_Driver/Src/stm32f4xx_hal_i2s.c **** 
1263:Drivers/STM32F4xx_HAL_Driver/Src/stm32f4xx_hal_i2s.c **** @endverbatim
1264:Drivers/STM32F4xx_HAL_Driver/Src/stm32f4xx_hal_i2s.c ****   * @{
1265:Drivers/STM32F4xx_HAL_Driver/Src/stm32f4xx_hal_i2s.c ****   */
1266:Drivers/STM32F4xx_HAL_Driver/Src/stm32f4xx_hal_i2s.c **** 
1267:Drivers/STM32F4xx_HAL_Driver/Src/stm32f4xx_hal_i2s.c **** /**
1268:Drivers/STM32F4xx_HAL_Driver/Src/stm32f4xx_hal_i2s.c ****   * @brief  Return the I2S state
1269:Drivers/STM32F4xx_HAL_Driver/Src/stm32f4xx_hal_i2s.c ****   * @param  hi2s: pointer to a I2S_HandleTypeDef structure that contains
1270:Drivers/STM32F4xx_HAL_Driver/Src/stm32f4xx_hal_i2s.c ****   *         the configuration information for I2S module
1271:Drivers/STM32F4xx_HAL_Driver/Src/stm32f4xx_hal_i2s.c ****   * @retval HAL state
1272:Drivers/STM32F4xx_HAL_Driver/Src/stm32f4xx_hal_i2s.c ****   */
1273:Drivers/STM32F4xx_HAL_Driver/Src/stm32f4xx_hal_i2s.c **** HAL_I2S_StateTypeDef HAL_I2S_GetState(I2S_HandleTypeDef *hi2s)
1274:Drivers/STM32F4xx_HAL_Driver/Src/stm32f4xx_hal_i2s.c **** {
1275:Drivers/STM32F4xx_HAL_Driver/Src/stm32f4xx_hal_i2s.c ****   return hi2s->State;
1276:Drivers/STM32F4xx_HAL_Driver/Src/stm32f4xx_hal_i2s.c **** }
1277:Drivers/STM32F4xx_HAL_Driver/Src/stm32f4xx_hal_i2s.c **** 
1278:Drivers/STM32F4xx_HAL_Driver/Src/stm32f4xx_hal_i2s.c **** /**
1279:Drivers/STM32F4xx_HAL_Driver/Src/stm32f4xx_hal_i2s.c ****   * @brief  Return the I2S error code
1280:Drivers/STM32F4xx_HAL_Driver/Src/stm32f4xx_hal_i2s.c ****   * @param  hi2s: pointer to a I2S_HandleTypeDef structure that contains
1281:Drivers/STM32F4xx_HAL_Driver/Src/stm32f4xx_hal_i2s.c ****   *         the configuration information for I2S module
1282:Drivers/STM32F4xx_HAL_Driver/Src/stm32f4xx_hal_i2s.c ****   * @retval I2S Error Code
1283:Drivers/STM32F4xx_HAL_Driver/Src/stm32f4xx_hal_i2s.c ****   */
1284:Drivers/STM32F4xx_HAL_Driver/Src/stm32f4xx_hal_i2s.c **** uint32_t HAL_I2S_GetError(I2S_HandleTypeDef *hi2s)
1285:Drivers/STM32F4xx_HAL_Driver/Src/stm32f4xx_hal_i2s.c **** {
1286:Drivers/STM32F4xx_HAL_Driver/Src/stm32f4xx_hal_i2s.c ****   return hi2s->ErrorCode;
ARM GAS  C:\Users\Student\AppData\Local\Temp\ccUcoAHh.s 			page 24


1287:Drivers/STM32F4xx_HAL_Driver/Src/stm32f4xx_hal_i2s.c **** }
1288:Drivers/STM32F4xx_HAL_Driver/Src/stm32f4xx_hal_i2s.c **** /**
1289:Drivers/STM32F4xx_HAL_Driver/Src/stm32f4xx_hal_i2s.c ****   * @}
1290:Drivers/STM32F4xx_HAL_Driver/Src/stm32f4xx_hal_i2s.c ****   */
1291:Drivers/STM32F4xx_HAL_Driver/Src/stm32f4xx_hal_i2s.c **** 
1292:Drivers/STM32F4xx_HAL_Driver/Src/stm32f4xx_hal_i2s.c **** /**
1293:Drivers/STM32F4xx_HAL_Driver/Src/stm32f4xx_hal_i2s.c ****   * @}
1294:Drivers/STM32F4xx_HAL_Driver/Src/stm32f4xx_hal_i2s.c ****   */
1295:Drivers/STM32F4xx_HAL_Driver/Src/stm32f4xx_hal_i2s.c **** 
1296:Drivers/STM32F4xx_HAL_Driver/Src/stm32f4xx_hal_i2s.c **** /** @addtogroup I2S_Private_Functions I2S Private Functions
1297:Drivers/STM32F4xx_HAL_Driver/Src/stm32f4xx_hal_i2s.c ****   * @{
1298:Drivers/STM32F4xx_HAL_Driver/Src/stm32f4xx_hal_i2s.c ****   */
1299:Drivers/STM32F4xx_HAL_Driver/Src/stm32f4xx_hal_i2s.c **** /**
1300:Drivers/STM32F4xx_HAL_Driver/Src/stm32f4xx_hal_i2s.c ****   * @brief DMA I2S transmit process complete callback
1301:Drivers/STM32F4xx_HAL_Driver/Src/stm32f4xx_hal_i2s.c ****   * @param  hdma: pointer to a DMA_HandleTypeDef structure that contains
1302:Drivers/STM32F4xx_HAL_Driver/Src/stm32f4xx_hal_i2s.c ****   *                the configuration information for the specified DMA module.
1303:Drivers/STM32F4xx_HAL_Driver/Src/stm32f4xx_hal_i2s.c ****   * @retval None
1304:Drivers/STM32F4xx_HAL_Driver/Src/stm32f4xx_hal_i2s.c ****   */
1305:Drivers/STM32F4xx_HAL_Driver/Src/stm32f4xx_hal_i2s.c **** static void I2S_DMATxCplt(DMA_HandleTypeDef *hdma)
1306:Drivers/STM32F4xx_HAL_Driver/Src/stm32f4xx_hal_i2s.c **** {
1307:Drivers/STM32F4xx_HAL_Driver/Src/stm32f4xx_hal_i2s.c ****   I2S_HandleTypeDef* hi2s = ( I2S_HandleTypeDef* )((DMA_HandleTypeDef* )hdma)->Parent;
1308:Drivers/STM32F4xx_HAL_Driver/Src/stm32f4xx_hal_i2s.c **** 
1309:Drivers/STM32F4xx_HAL_Driver/Src/stm32f4xx_hal_i2s.c ****   if((hdma->Instance->CR & DMA_SxCR_CIRC) == 0U)
1310:Drivers/STM32F4xx_HAL_Driver/Src/stm32f4xx_hal_i2s.c ****   {
1311:Drivers/STM32F4xx_HAL_Driver/Src/stm32f4xx_hal_i2s.c ****     /* Disable Tx DMA Request */
1312:Drivers/STM32F4xx_HAL_Driver/Src/stm32f4xx_hal_i2s.c ****     CLEAR_BIT(hi2s->Instance->CR2,SPI_CR2_TXDMAEN);
1313:Drivers/STM32F4xx_HAL_Driver/Src/stm32f4xx_hal_i2s.c **** 
1314:Drivers/STM32F4xx_HAL_Driver/Src/stm32f4xx_hal_i2s.c ****     hi2s->TxXferCount = 0U;
1315:Drivers/STM32F4xx_HAL_Driver/Src/stm32f4xx_hal_i2s.c ****     hi2s->State       = HAL_I2S_STATE_READY;
1316:Drivers/STM32F4xx_HAL_Driver/Src/stm32f4xx_hal_i2s.c ****   }
1317:Drivers/STM32F4xx_HAL_Driver/Src/stm32f4xx_hal_i2s.c ****   HAL_I2S_TxCpltCallback(hi2s);
1318:Drivers/STM32F4xx_HAL_Driver/Src/stm32f4xx_hal_i2s.c **** }
1319:Drivers/STM32F4xx_HAL_Driver/Src/stm32f4xx_hal_i2s.c **** /**
1320:Drivers/STM32F4xx_HAL_Driver/Src/stm32f4xx_hal_i2s.c ****   * @brief DMA I2S transmit process half complete callback
1321:Drivers/STM32F4xx_HAL_Driver/Src/stm32f4xx_hal_i2s.c ****   * @param  hdma: pointer to a DMA_HandleTypeDef structure that contains
1322:Drivers/STM32F4xx_HAL_Driver/Src/stm32f4xx_hal_i2s.c ****   *                the configuration information for the specified DMA module.
1323:Drivers/STM32F4xx_HAL_Driver/Src/stm32f4xx_hal_i2s.c ****   * @retval None
1324:Drivers/STM32F4xx_HAL_Driver/Src/stm32f4xx_hal_i2s.c ****   */
1325:Drivers/STM32F4xx_HAL_Driver/Src/stm32f4xx_hal_i2s.c **** static void I2S_DMATxHalfCplt(DMA_HandleTypeDef *hdma)
1326:Drivers/STM32F4xx_HAL_Driver/Src/stm32f4xx_hal_i2s.c **** {
1327:Drivers/STM32F4xx_HAL_Driver/Src/stm32f4xx_hal_i2s.c ****   I2S_HandleTypeDef* hi2s = (I2S_HandleTypeDef*)((DMA_HandleTypeDef*)hdma)->Parent;
1328:Drivers/STM32F4xx_HAL_Driver/Src/stm32f4xx_hal_i2s.c **** 
1329:Drivers/STM32F4xx_HAL_Driver/Src/stm32f4xx_hal_i2s.c ****   HAL_I2S_TxHalfCpltCallback(hi2s);
1330:Drivers/STM32F4xx_HAL_Driver/Src/stm32f4xx_hal_i2s.c **** }
1331:Drivers/STM32F4xx_HAL_Driver/Src/stm32f4xx_hal_i2s.c **** 
1332:Drivers/STM32F4xx_HAL_Driver/Src/stm32f4xx_hal_i2s.c **** /**
1333:Drivers/STM32F4xx_HAL_Driver/Src/stm32f4xx_hal_i2s.c ****   * @brief DMA I2S receive process complete callback
1334:Drivers/STM32F4xx_HAL_Driver/Src/stm32f4xx_hal_i2s.c ****   * @param  hdma: pointer to a DMA_HandleTypeDef structure that contains
1335:Drivers/STM32F4xx_HAL_Driver/Src/stm32f4xx_hal_i2s.c ****   *                the configuration information for the specified DMA module.
1336:Drivers/STM32F4xx_HAL_Driver/Src/stm32f4xx_hal_i2s.c ****   * @retval None
1337:Drivers/STM32F4xx_HAL_Driver/Src/stm32f4xx_hal_i2s.c ****   */
1338:Drivers/STM32F4xx_HAL_Driver/Src/stm32f4xx_hal_i2s.c **** static void I2S_DMARxCplt(DMA_HandleTypeDef *hdma)
1339:Drivers/STM32F4xx_HAL_Driver/Src/stm32f4xx_hal_i2s.c **** {
1340:Drivers/STM32F4xx_HAL_Driver/Src/stm32f4xx_hal_i2s.c ****   I2S_HandleTypeDef* hi2s = ( I2S_HandleTypeDef* )((DMA_HandleTypeDef* )hdma)->Parent;
1341:Drivers/STM32F4xx_HAL_Driver/Src/stm32f4xx_hal_i2s.c **** 
1342:Drivers/STM32F4xx_HAL_Driver/Src/stm32f4xx_hal_i2s.c ****   if((hdma->Instance->CR & DMA_SxCR_CIRC) == 0U)
1343:Drivers/STM32F4xx_HAL_Driver/Src/stm32f4xx_hal_i2s.c ****   {
ARM GAS  C:\Users\Student\AppData\Local\Temp\ccUcoAHh.s 			page 25


1344:Drivers/STM32F4xx_HAL_Driver/Src/stm32f4xx_hal_i2s.c ****     /* Disable Rx DMA Request */
1345:Drivers/STM32F4xx_HAL_Driver/Src/stm32f4xx_hal_i2s.c ****     CLEAR_BIT(hi2s->Instance->CR2,SPI_CR2_RXDMAEN);
1346:Drivers/STM32F4xx_HAL_Driver/Src/stm32f4xx_hal_i2s.c ****     hi2s->RxXferCount = 0U;
1347:Drivers/STM32F4xx_HAL_Driver/Src/stm32f4xx_hal_i2s.c ****     hi2s->State       = HAL_I2S_STATE_READY;
1348:Drivers/STM32F4xx_HAL_Driver/Src/stm32f4xx_hal_i2s.c ****   }
1349:Drivers/STM32F4xx_HAL_Driver/Src/stm32f4xx_hal_i2s.c ****   HAL_I2S_RxCpltCallback(hi2s);
1350:Drivers/STM32F4xx_HAL_Driver/Src/stm32f4xx_hal_i2s.c **** }
1351:Drivers/STM32F4xx_HAL_Driver/Src/stm32f4xx_hal_i2s.c **** 
1352:Drivers/STM32F4xx_HAL_Driver/Src/stm32f4xx_hal_i2s.c **** /**
1353:Drivers/STM32F4xx_HAL_Driver/Src/stm32f4xx_hal_i2s.c ****   * @brief DMA I2S receive process half complete callback
1354:Drivers/STM32F4xx_HAL_Driver/Src/stm32f4xx_hal_i2s.c ****   * @param  hdma: pointer to a DMA_HandleTypeDef structure that contains
1355:Drivers/STM32F4xx_HAL_Driver/Src/stm32f4xx_hal_i2s.c ****   *                the configuration information for the specified DMA module.
1356:Drivers/STM32F4xx_HAL_Driver/Src/stm32f4xx_hal_i2s.c ****   * @retval None
1357:Drivers/STM32F4xx_HAL_Driver/Src/stm32f4xx_hal_i2s.c ****   */
1358:Drivers/STM32F4xx_HAL_Driver/Src/stm32f4xx_hal_i2s.c **** static void I2S_DMARxHalfCplt(DMA_HandleTypeDef *hdma)
1359:Drivers/STM32F4xx_HAL_Driver/Src/stm32f4xx_hal_i2s.c **** {
1360:Drivers/STM32F4xx_HAL_Driver/Src/stm32f4xx_hal_i2s.c ****   I2S_HandleTypeDef* hi2s = (I2S_HandleTypeDef*)((DMA_HandleTypeDef*)hdma)->Parent;
1361:Drivers/STM32F4xx_HAL_Driver/Src/stm32f4xx_hal_i2s.c **** 
1362:Drivers/STM32F4xx_HAL_Driver/Src/stm32f4xx_hal_i2s.c ****   HAL_I2S_RxHalfCpltCallback(hi2s);
1363:Drivers/STM32F4xx_HAL_Driver/Src/stm32f4xx_hal_i2s.c **** }
1364:Drivers/STM32F4xx_HAL_Driver/Src/stm32f4xx_hal_i2s.c **** 
1365:Drivers/STM32F4xx_HAL_Driver/Src/stm32f4xx_hal_i2s.c **** /**
1366:Drivers/STM32F4xx_HAL_Driver/Src/stm32f4xx_hal_i2s.c ****   * @brief DMA I2S communication error callback
1367:Drivers/STM32F4xx_HAL_Driver/Src/stm32f4xx_hal_i2s.c ****   * @param  hdma: pointer to a DMA_HandleTypeDef structure that contains
1368:Drivers/STM32F4xx_HAL_Driver/Src/stm32f4xx_hal_i2s.c ****   *                the configuration information for the specified DMA module.
1369:Drivers/STM32F4xx_HAL_Driver/Src/stm32f4xx_hal_i2s.c ****   * @retval None
1370:Drivers/STM32F4xx_HAL_Driver/Src/stm32f4xx_hal_i2s.c ****   */
1371:Drivers/STM32F4xx_HAL_Driver/Src/stm32f4xx_hal_i2s.c **** static void I2S_DMAError(DMA_HandleTypeDef *hdma)
1372:Drivers/STM32F4xx_HAL_Driver/Src/stm32f4xx_hal_i2s.c **** {
1373:Drivers/STM32F4xx_HAL_Driver/Src/stm32f4xx_hal_i2s.c ****   I2S_HandleTypeDef* hi2s = (I2S_HandleTypeDef*)((DMA_HandleTypeDef*)hdma)->Parent;
1374:Drivers/STM32F4xx_HAL_Driver/Src/stm32f4xx_hal_i2s.c **** 
1375:Drivers/STM32F4xx_HAL_Driver/Src/stm32f4xx_hal_i2s.c ****   /* Disable Rx and Tx DMA Request */
1376:Drivers/STM32F4xx_HAL_Driver/Src/stm32f4xx_hal_i2s.c ****   CLEAR_BIT(hi2s->Instance->CR2,(SPI_CR2_RXDMAEN | SPI_CR2_TXDMAEN));
1377:Drivers/STM32F4xx_HAL_Driver/Src/stm32f4xx_hal_i2s.c ****   hi2s->TxXferCount = 0U;
1378:Drivers/STM32F4xx_HAL_Driver/Src/stm32f4xx_hal_i2s.c ****   hi2s->RxXferCount = 0U;
1379:Drivers/STM32F4xx_HAL_Driver/Src/stm32f4xx_hal_i2s.c **** 
1380:Drivers/STM32F4xx_HAL_Driver/Src/stm32f4xx_hal_i2s.c ****   hi2s->State= HAL_I2S_STATE_READY;
1381:Drivers/STM32F4xx_HAL_Driver/Src/stm32f4xx_hal_i2s.c **** 
1382:Drivers/STM32F4xx_HAL_Driver/Src/stm32f4xx_hal_i2s.c ****   SET_BIT(hi2s->ErrorCode,HAL_I2S_ERROR_DMA);
1383:Drivers/STM32F4xx_HAL_Driver/Src/stm32f4xx_hal_i2s.c ****   HAL_I2S_ErrorCallback(hi2s);
1384:Drivers/STM32F4xx_HAL_Driver/Src/stm32f4xx_hal_i2s.c **** }
1385:Drivers/STM32F4xx_HAL_Driver/Src/stm32f4xx_hal_i2s.c **** 
1386:Drivers/STM32F4xx_HAL_Driver/Src/stm32f4xx_hal_i2s.c **** /**
1387:Drivers/STM32F4xx_HAL_Driver/Src/stm32f4xx_hal_i2s.c ****   * @brief Transmit an amount of data in non-blocking mode with Interrupt
1388:Drivers/STM32F4xx_HAL_Driver/Src/stm32f4xx_hal_i2s.c ****   * @param  hi2s: pointer to a I2S_HandleTypeDef structure that contains
1389:Drivers/STM32F4xx_HAL_Driver/Src/stm32f4xx_hal_i2s.c ****   *         the configuration information for I2S module
1390:Drivers/STM32F4xx_HAL_Driver/Src/stm32f4xx_hal_i2s.c ****   * @retval HAL status
1391:Drivers/STM32F4xx_HAL_Driver/Src/stm32f4xx_hal_i2s.c ****   */
1392:Drivers/STM32F4xx_HAL_Driver/Src/stm32f4xx_hal_i2s.c **** static void I2S_Transmit_IT(I2S_HandleTypeDef *hi2s)
1393:Drivers/STM32F4xx_HAL_Driver/Src/stm32f4xx_hal_i2s.c **** {
1394:Drivers/STM32F4xx_HAL_Driver/Src/stm32f4xx_hal_i2s.c ****   /* Transmit data */
1395:Drivers/STM32F4xx_HAL_Driver/Src/stm32f4xx_hal_i2s.c ****   hi2s->Instance->DR = (*hi2s->pTxBuffPtr++);
1396:Drivers/STM32F4xx_HAL_Driver/Src/stm32f4xx_hal_i2s.c ****   hi2s->TxXferCount--;
1397:Drivers/STM32F4xx_HAL_Driver/Src/stm32f4xx_hal_i2s.c **** 
1398:Drivers/STM32F4xx_HAL_Driver/Src/stm32f4xx_hal_i2s.c ****   if(hi2s->TxXferCount == 0U)
1399:Drivers/STM32F4xx_HAL_Driver/Src/stm32f4xx_hal_i2s.c ****   {
1400:Drivers/STM32F4xx_HAL_Driver/Src/stm32f4xx_hal_i2s.c ****     /* Disable TXE and ERR interrupt */
ARM GAS  C:\Users\Student\AppData\Local\Temp\ccUcoAHh.s 			page 26


1401:Drivers/STM32F4xx_HAL_Driver/Src/stm32f4xx_hal_i2s.c ****     __HAL_I2S_DISABLE_IT(hi2s, (I2S_IT_TXE | I2S_IT_ERR));
1402:Drivers/STM32F4xx_HAL_Driver/Src/stm32f4xx_hal_i2s.c **** 
1403:Drivers/STM32F4xx_HAL_Driver/Src/stm32f4xx_hal_i2s.c ****     hi2s->State = HAL_I2S_STATE_READY;
1404:Drivers/STM32F4xx_HAL_Driver/Src/stm32f4xx_hal_i2s.c ****     HAL_I2S_TxCpltCallback(hi2s);
1405:Drivers/STM32F4xx_HAL_Driver/Src/stm32f4xx_hal_i2s.c ****   }
1406:Drivers/STM32F4xx_HAL_Driver/Src/stm32f4xx_hal_i2s.c **** }
1407:Drivers/STM32F4xx_HAL_Driver/Src/stm32f4xx_hal_i2s.c **** 
1408:Drivers/STM32F4xx_HAL_Driver/Src/stm32f4xx_hal_i2s.c **** /**
1409:Drivers/STM32F4xx_HAL_Driver/Src/stm32f4xx_hal_i2s.c ****   * @brief Receive an amount of data in non-blocking mode with Interrupt
1410:Drivers/STM32F4xx_HAL_Driver/Src/stm32f4xx_hal_i2s.c ****   * @param  hi2s: pointer to a I2S_HandleTypeDef structure that contains
1411:Drivers/STM32F4xx_HAL_Driver/Src/stm32f4xx_hal_i2s.c ****   *         the configuration information for I2S module
1412:Drivers/STM32F4xx_HAL_Driver/Src/stm32f4xx_hal_i2s.c ****   * @retval HAL status
1413:Drivers/STM32F4xx_HAL_Driver/Src/stm32f4xx_hal_i2s.c ****   */
1414:Drivers/STM32F4xx_HAL_Driver/Src/stm32f4xx_hal_i2s.c **** static void I2S_Receive_IT(I2S_HandleTypeDef *hi2s)
1415:Drivers/STM32F4xx_HAL_Driver/Src/stm32f4xx_hal_i2s.c **** {
1416:Drivers/STM32F4xx_HAL_Driver/Src/stm32f4xx_hal_i2s.c ****   /* Receive data */
1417:Drivers/STM32F4xx_HAL_Driver/Src/stm32f4xx_hal_i2s.c ****   (*hi2s->pRxBuffPtr++) = hi2s->Instance->DR;
1418:Drivers/STM32F4xx_HAL_Driver/Src/stm32f4xx_hal_i2s.c ****   hi2s->RxXferCount--;
1419:Drivers/STM32F4xx_HAL_Driver/Src/stm32f4xx_hal_i2s.c **** 
1420:Drivers/STM32F4xx_HAL_Driver/Src/stm32f4xx_hal_i2s.c ****   if(hi2s->RxXferCount == 0U)
1421:Drivers/STM32F4xx_HAL_Driver/Src/stm32f4xx_hal_i2s.c ****   {
1422:Drivers/STM32F4xx_HAL_Driver/Src/stm32f4xx_hal_i2s.c ****     /* Disable RXNE and ERR interrupt */
1423:Drivers/STM32F4xx_HAL_Driver/Src/stm32f4xx_hal_i2s.c ****     __HAL_I2S_DISABLE_IT(hi2s, (I2S_IT_RXNE | I2S_IT_ERR));
1424:Drivers/STM32F4xx_HAL_Driver/Src/stm32f4xx_hal_i2s.c **** 
1425:Drivers/STM32F4xx_HAL_Driver/Src/stm32f4xx_hal_i2s.c ****     hi2s->State = HAL_I2S_STATE_READY;
1426:Drivers/STM32F4xx_HAL_Driver/Src/stm32f4xx_hal_i2s.c ****     HAL_I2S_RxCpltCallback(hi2s);
1427:Drivers/STM32F4xx_HAL_Driver/Src/stm32f4xx_hal_i2s.c ****   }
1428:Drivers/STM32F4xx_HAL_Driver/Src/stm32f4xx_hal_i2s.c **** }
1429:Drivers/STM32F4xx_HAL_Driver/Src/stm32f4xx_hal_i2s.c **** 
1430:Drivers/STM32F4xx_HAL_Driver/Src/stm32f4xx_hal_i2s.c **** /**
1431:Drivers/STM32F4xx_HAL_Driver/Src/stm32f4xx_hal_i2s.c ****   * @brief  This function handles I2S interrupt request.
1432:Drivers/STM32F4xx_HAL_Driver/Src/stm32f4xx_hal_i2s.c ****   * @param  hi2s: pointer to a I2S_HandleTypeDef structure that contains
1433:Drivers/STM32F4xx_HAL_Driver/Src/stm32f4xx_hal_i2s.c ****   *         the configuration information for I2S module
1434:Drivers/STM32F4xx_HAL_Driver/Src/stm32f4xx_hal_i2s.c ****   * @retval None
1435:Drivers/STM32F4xx_HAL_Driver/Src/stm32f4xx_hal_i2s.c ****   */
1436:Drivers/STM32F4xx_HAL_Driver/Src/stm32f4xx_hal_i2s.c **** static void I2S_IRQHandler(I2S_HandleTypeDef *hi2s)
1437:Drivers/STM32F4xx_HAL_Driver/Src/stm32f4xx_hal_i2s.c **** {
1438:Drivers/STM32F4xx_HAL_Driver/Src/stm32f4xx_hal_i2s.c ****   __IO uint32_t i2ssr = hi2s->Instance->SR;
1439:Drivers/STM32F4xx_HAL_Driver/Src/stm32f4xx_hal_i2s.c **** 
1440:Drivers/STM32F4xx_HAL_Driver/Src/stm32f4xx_hal_i2s.c ****   if(hi2s->State == HAL_I2S_STATE_BUSY_RX)
1441:Drivers/STM32F4xx_HAL_Driver/Src/stm32f4xx_hal_i2s.c ****   {
1442:Drivers/STM32F4xx_HAL_Driver/Src/stm32f4xx_hal_i2s.c ****     /* I2S in mode Receiver ------------------------------------------------*/
1443:Drivers/STM32F4xx_HAL_Driver/Src/stm32f4xx_hal_i2s.c ****     if(((i2ssr & I2S_FLAG_RXNE) == I2S_FLAG_RXNE) && (__HAL_I2S_GET_IT_SOURCE(hi2s, I2S_IT_RXNE) !=
1444:Drivers/STM32F4xx_HAL_Driver/Src/stm32f4xx_hal_i2s.c ****     {
1445:Drivers/STM32F4xx_HAL_Driver/Src/stm32f4xx_hal_i2s.c ****       I2S_Receive_IT(hi2s);
1446:Drivers/STM32F4xx_HAL_Driver/Src/stm32f4xx_hal_i2s.c ****     }
1447:Drivers/STM32F4xx_HAL_Driver/Src/stm32f4xx_hal_i2s.c **** 
1448:Drivers/STM32F4xx_HAL_Driver/Src/stm32f4xx_hal_i2s.c ****     /* I2S Overrun error interrupt occured -------------------------------------*/
1449:Drivers/STM32F4xx_HAL_Driver/Src/stm32f4xx_hal_i2s.c ****     if(((i2ssr & I2S_FLAG_OVR) == I2S_FLAG_OVR) && (__HAL_I2S_GET_IT_SOURCE(hi2s, I2S_IT_ERR) != RE
1450:Drivers/STM32F4xx_HAL_Driver/Src/stm32f4xx_hal_i2s.c ****     {
1451:Drivers/STM32F4xx_HAL_Driver/Src/stm32f4xx_hal_i2s.c ****       /* Disable RXNE and ERR interrupt */
1452:Drivers/STM32F4xx_HAL_Driver/Src/stm32f4xx_hal_i2s.c ****       __HAL_I2S_DISABLE_IT(hi2s, (I2S_IT_RXNE | I2S_IT_ERR));
1453:Drivers/STM32F4xx_HAL_Driver/Src/stm32f4xx_hal_i2s.c **** 
1454:Drivers/STM32F4xx_HAL_Driver/Src/stm32f4xx_hal_i2s.c ****       /* Clear Overrun flag */
1455:Drivers/STM32F4xx_HAL_Driver/Src/stm32f4xx_hal_i2s.c ****       __HAL_I2S_CLEAR_OVRFLAG(hi2s);
1456:Drivers/STM32F4xx_HAL_Driver/Src/stm32f4xx_hal_i2s.c **** 
1457:Drivers/STM32F4xx_HAL_Driver/Src/stm32f4xx_hal_i2s.c ****       /* Set the I2S State ready */
ARM GAS  C:\Users\Student\AppData\Local\Temp\ccUcoAHh.s 			page 27


1458:Drivers/STM32F4xx_HAL_Driver/Src/stm32f4xx_hal_i2s.c ****       hi2s->State = HAL_I2S_STATE_READY;
1459:Drivers/STM32F4xx_HAL_Driver/Src/stm32f4xx_hal_i2s.c **** 
1460:Drivers/STM32F4xx_HAL_Driver/Src/stm32f4xx_hal_i2s.c **** 
1461:Drivers/STM32F4xx_HAL_Driver/Src/stm32f4xx_hal_i2s.c ****       /* Set the error code and execute error callback*/
1462:Drivers/STM32F4xx_HAL_Driver/Src/stm32f4xx_hal_i2s.c ****       SET_BIT(hi2s->ErrorCode,HAL_I2S_ERROR_OVR);
1463:Drivers/STM32F4xx_HAL_Driver/Src/stm32f4xx_hal_i2s.c ****       HAL_I2S_ErrorCallback(hi2s);
1464:Drivers/STM32F4xx_HAL_Driver/Src/stm32f4xx_hal_i2s.c ****       }
1465:Drivers/STM32F4xx_HAL_Driver/Src/stm32f4xx_hal_i2s.c ****     }
1466:Drivers/STM32F4xx_HAL_Driver/Src/stm32f4xx_hal_i2s.c **** 
1467:Drivers/STM32F4xx_HAL_Driver/Src/stm32f4xx_hal_i2s.c ****     if(hi2s->State == HAL_I2S_STATE_BUSY_TX)
1468:Drivers/STM32F4xx_HAL_Driver/Src/stm32f4xx_hal_i2s.c ****     {
1469:Drivers/STM32F4xx_HAL_Driver/Src/stm32f4xx_hal_i2s.c ****       /* I2S in mode Transmitter -----------------------------------------------*/
1470:Drivers/STM32F4xx_HAL_Driver/Src/stm32f4xx_hal_i2s.c ****     if(((i2ssr & I2S_FLAG_TXE) == I2S_FLAG_TXE) && (__HAL_I2S_GET_IT_SOURCE(hi2s, I2S_IT_TXE) != RE
1471:Drivers/STM32F4xx_HAL_Driver/Src/stm32f4xx_hal_i2s.c ****       {
1472:Drivers/STM32F4xx_HAL_Driver/Src/stm32f4xx_hal_i2s.c ****         I2S_Transmit_IT(hi2s);
1473:Drivers/STM32F4xx_HAL_Driver/Src/stm32f4xx_hal_i2s.c ****       }
1474:Drivers/STM32F4xx_HAL_Driver/Src/stm32f4xx_hal_i2s.c **** 
1475:Drivers/STM32F4xx_HAL_Driver/Src/stm32f4xx_hal_i2s.c ****       /* I2S Underrun error interrupt occurred --------------------------------*/
1476:Drivers/STM32F4xx_HAL_Driver/Src/stm32f4xx_hal_i2s.c ****     if(((i2ssr & I2S_FLAG_UDR) == I2S_FLAG_UDR) && (__HAL_I2S_GET_IT_SOURCE(hi2s, I2S_IT_ERR) != RE
1477:Drivers/STM32F4xx_HAL_Driver/Src/stm32f4xx_hal_i2s.c ****       {
1478:Drivers/STM32F4xx_HAL_Driver/Src/stm32f4xx_hal_i2s.c ****       /* Disable TXE and ERR interrupt */
1479:Drivers/STM32F4xx_HAL_Driver/Src/stm32f4xx_hal_i2s.c ****       __HAL_I2S_DISABLE_IT(hi2s, (I2S_IT_TXE | I2S_IT_ERR));
1480:Drivers/STM32F4xx_HAL_Driver/Src/stm32f4xx_hal_i2s.c **** 
1481:Drivers/STM32F4xx_HAL_Driver/Src/stm32f4xx_hal_i2s.c ****       /* Clear Underrun flag */
1482:Drivers/STM32F4xx_HAL_Driver/Src/stm32f4xx_hal_i2s.c ****       __HAL_I2S_CLEAR_UDRFLAG(hi2s);
1483:Drivers/STM32F4xx_HAL_Driver/Src/stm32f4xx_hal_i2s.c **** 
1484:Drivers/STM32F4xx_HAL_Driver/Src/stm32f4xx_hal_i2s.c ****       /* Set the I2S State ready */
1485:Drivers/STM32F4xx_HAL_Driver/Src/stm32f4xx_hal_i2s.c ****       hi2s->State = HAL_I2S_STATE_READY;
1486:Drivers/STM32F4xx_HAL_Driver/Src/stm32f4xx_hal_i2s.c **** 
1487:Drivers/STM32F4xx_HAL_Driver/Src/stm32f4xx_hal_i2s.c ****       /* Set the error code and execute error callback*/
1488:Drivers/STM32F4xx_HAL_Driver/Src/stm32f4xx_hal_i2s.c ****       SET_BIT(hi2s->ErrorCode, HAL_I2S_ERROR_UDR);
1489:Drivers/STM32F4xx_HAL_Driver/Src/stm32f4xx_hal_i2s.c ****       HAL_I2S_ErrorCallback(hi2s);
1490:Drivers/STM32F4xx_HAL_Driver/Src/stm32f4xx_hal_i2s.c ****     }
1491:Drivers/STM32F4xx_HAL_Driver/Src/stm32f4xx_hal_i2s.c ****   }
1492:Drivers/STM32F4xx_HAL_Driver/Src/stm32f4xx_hal_i2s.c **** }
1493:Drivers/STM32F4xx_HAL_Driver/Src/stm32f4xx_hal_i2s.c **** 
1494:Drivers/STM32F4xx_HAL_Driver/Src/stm32f4xx_hal_i2s.c **** /**
1495:Drivers/STM32F4xx_HAL_Driver/Src/stm32f4xx_hal_i2s.c ****   * @brief This function handles I2S Communication Timeout.
1496:Drivers/STM32F4xx_HAL_Driver/Src/stm32f4xx_hal_i2s.c ****   * @param  hi2s: pointer to a I2S_HandleTypeDef structure that contains
1497:Drivers/STM32F4xx_HAL_Driver/Src/stm32f4xx_hal_i2s.c ****   *         the configuration information for I2S module
1498:Drivers/STM32F4xx_HAL_Driver/Src/stm32f4xx_hal_i2s.c ****   * @param Flag: Flag checked
1499:Drivers/STM32F4xx_HAL_Driver/Src/stm32f4xx_hal_i2s.c ****   * @param State: Value of the flag expected
1500:Drivers/STM32F4xx_HAL_Driver/Src/stm32f4xx_hal_i2s.c ****   * @param Timeout: Duration of the timeout
1501:Drivers/STM32F4xx_HAL_Driver/Src/stm32f4xx_hal_i2s.c ****   * @retval HAL status
1502:Drivers/STM32F4xx_HAL_Driver/Src/stm32f4xx_hal_i2s.c ****   */
1503:Drivers/STM32F4xx_HAL_Driver/Src/stm32f4xx_hal_i2s.c **** static HAL_StatusTypeDef I2S_WaitFlagStateUntilTimeout(I2S_HandleTypeDef *hi2s, uint32_t Flag, uint
1504:Drivers/STM32F4xx_HAL_Driver/Src/stm32f4xx_hal_i2s.c ****                                                        uint32_t Timeout)
1505:Drivers/STM32F4xx_HAL_Driver/Src/stm32f4xx_hal_i2s.c **** {
  27              		.loc 1 1505 0
  28              		.cfi_startproc
  29              		@ args = 0, pretend = 0, frame = 0
  30              		@ frame_needed = 0, uses_anonymous_args = 0
  31              	.LVL0:
  32 0000 2DE9F041 		push	{r4, r5, r6, r7, r8, lr}
  33              	.LCFI0:
  34              		.cfi_def_cfa_offset 24
  35              		.cfi_offset 4, -24
ARM GAS  C:\Users\Student\AppData\Local\Temp\ccUcoAHh.s 			page 28


  36              		.cfi_offset 5, -20
  37              		.cfi_offset 6, -16
  38              		.cfi_offset 7, -12
  39              		.cfi_offset 8, -8
  40              		.cfi_offset 14, -4
  41 0004 0546     		mov	r5, r0
  42 0006 0F46     		mov	r7, r1
  43 0008 1646     		mov	r6, r2
  44 000a 1C46     		mov	r4, r3
1506:Drivers/STM32F4xx_HAL_Driver/Src/stm32f4xx_hal_i2s.c ****   uint32_t tickstart = HAL_GetTick();
  45              		.loc 1 1506 0
  46 000c FFF7FEFF 		bl	HAL_GetTick
  47              	.LVL1:
  48 0010 8046     		mov	r8, r0
  49              	.LVL2:
1507:Drivers/STM32F4xx_HAL_Driver/Src/stm32f4xx_hal_i2s.c ****   
1508:Drivers/STM32F4xx_HAL_Driver/Src/stm32f4xx_hal_i2s.c ****    /* Wait until flag is set to status*/
1509:Drivers/STM32F4xx_HAL_Driver/Src/stm32f4xx_hal_i2s.c ****   while(((__HAL_I2S_GET_FLAG(hi2s, Flag)) ? SET : RESET) != State)
  50              		.loc 1 1509 0
  51 0012 15E0     		b	.L3
  52              	.LVL3:
  53              	.L11:
1510:Drivers/STM32F4xx_HAL_Driver/Src/stm32f4xx_hal_i2s.c ****   {
1511:Drivers/STM32F4xx_HAL_Driver/Src/stm32f4xx_hal_i2s.c ****     if(Timeout != HAL_MAX_DELAY)
1512:Drivers/STM32F4xx_HAL_Driver/Src/stm32f4xx_hal_i2s.c ****     {
1513:Drivers/STM32F4xx_HAL_Driver/Src/stm32f4xx_hal_i2s.c ****       if((Timeout == 0U)||((HAL_GetTick() - tickstart ) > Timeout))
  54              		.loc 1 1513 0
  55 0014 2CB1     		cbz	r4, .L4
  56              		.loc 1 1513 0 is_stmt 0 discriminator 1
  57 0016 FFF7FEFF 		bl	HAL_GetTick
  58              	.LVL4:
  59 001a A0EB0800 		sub	r0, r0, r8
  60 001e 8442     		cmp	r4, r0
  61 0020 0ED2     		bcs	.L3
  62              	.L4:
1514:Drivers/STM32F4xx_HAL_Driver/Src/stm32f4xx_hal_i2s.c ****       {
1515:Drivers/STM32F4xx_HAL_Driver/Src/stm32f4xx_hal_i2s.c ****         /* Set the I2S State ready */
1516:Drivers/STM32F4xx_HAL_Driver/Src/stm32f4xx_hal_i2s.c ****         hi2s->State = HAL_I2S_STATE_READY;
  63              		.loc 1 1516 0 is_stmt 1
  64 0022 0123     		movs	r3, #1
  65 0024 85F84130 		strb	r3, [r5, #65]
1517:Drivers/STM32F4xx_HAL_Driver/Src/stm32f4xx_hal_i2s.c **** 
1518:Drivers/STM32F4xx_HAL_Driver/Src/stm32f4xx_hal_i2s.c ****         /* Process Unlocked */
1519:Drivers/STM32F4xx_HAL_Driver/Src/stm32f4xx_hal_i2s.c ****         __HAL_UNLOCK(hi2s);
  66              		.loc 1 1519 0
  67 0028 0023     		movs	r3, #0
  68 002a 85F84030 		strb	r3, [r5, #64]
1520:Drivers/STM32F4xx_HAL_Driver/Src/stm32f4xx_hal_i2s.c **** 
1521:Drivers/STM32F4xx_HAL_Driver/Src/stm32f4xx_hal_i2s.c ****         return HAL_TIMEOUT;
  69              		.loc 1 1521 0
  70 002e 0320     		movs	r0, #3
  71 0030 BDE8F081 		pop	{r4, r5, r6, r7, r8, pc}
  72              	.LVL5:
  73              	.L12:
1509:Drivers/STM32F4xx_HAL_Driver/Src/stm32f4xx_hal_i2s.c ****   {
  74              		.loc 1 1509 0
  75 0034 0123     		movs	r3, #1
ARM GAS  C:\Users\Student\AppData\Local\Temp\ccUcoAHh.s 			page 29


  76              	.L6:
1509:Drivers/STM32F4xx_HAL_Driver/Src/stm32f4xx_hal_i2s.c ****   {
  77              		.loc 1 1509 0 is_stmt 0 discriminator 4
  78 0036 B342     		cmp	r3, r6
  79 0038 09D0     		beq	.L10
1511:Drivers/STM32F4xx_HAL_Driver/Src/stm32f4xx_hal_i2s.c ****     {
  80              		.loc 1 1511 0 is_stmt 1
  81 003a B4F1FF3F 		cmp	r4, #-1
  82 003e E9D1     		bne	.L11
  83              	.L3:
1509:Drivers/STM32F4xx_HAL_Driver/Src/stm32f4xx_hal_i2s.c ****   {
  84              		.loc 1 1509 0
  85 0040 2B68     		ldr	r3, [r5]
  86 0042 9B68     		ldr	r3, [r3, #8]
  87 0044 37EA0303 		bics	r3, r7, r3
  88 0048 F4D0     		beq	.L12
  89 004a 0023     		movs	r3, #0
  90 004c F3E7     		b	.L6
  91              	.L10:
1522:Drivers/STM32F4xx_HAL_Driver/Src/stm32f4xx_hal_i2s.c ****       }
1523:Drivers/STM32F4xx_HAL_Driver/Src/stm32f4xx_hal_i2s.c ****     }
1524:Drivers/STM32F4xx_HAL_Driver/Src/stm32f4xx_hal_i2s.c ****   }
1525:Drivers/STM32F4xx_HAL_Driver/Src/stm32f4xx_hal_i2s.c ****   return HAL_OK;
  92              		.loc 1 1525 0
  93 004e 0020     		movs	r0, #0
1526:Drivers/STM32F4xx_HAL_Driver/Src/stm32f4xx_hal_i2s.c **** }
  94              		.loc 1 1526 0
  95 0050 BDE8F081 		pop	{r4, r5, r6, r7, r8, pc}
  96              		.cfi_endproc
  97              	.LFE153:
  99              		.section	.text.HAL_I2S_MspInit,"ax",%progbits
 100              		.align	1
 101              		.weak	HAL_I2S_MspInit
 102              		.syntax unified
 103              		.thumb
 104              		.thumb_func
 105              		.fpu fpv4-sp-d16
 107              	HAL_I2S_MspInit:
 108              	.LFB126:
 443:Drivers/STM32F4xx_HAL_Driver/Src/stm32f4xx_hal_i2s.c ****   /* Prevent unused argument(s) compilation warning */
 109              		.loc 1 443 0
 110              		.cfi_startproc
 111              		@ args = 0, pretend = 0, frame = 0
 112              		@ frame_needed = 0, uses_anonymous_args = 0
 113              		@ link register save eliminated.
 114              	.LVL6:
 115 0000 7047     		bx	lr
 116              		.cfi_endproc
 117              	.LFE126:
 119              		.section	.text.HAL_I2S_MspDeInit,"ax",%progbits
 120              		.align	1
 121              		.weak	HAL_I2S_MspDeInit
 122              		.syntax unified
 123              		.thumb
 124              		.thumb_func
 125              		.fpu fpv4-sp-d16
 127              	HAL_I2S_MspDeInit:
ARM GAS  C:\Users\Student\AppData\Local\Temp\ccUcoAHh.s 			page 30


 128              	.LFB127:
 458:Drivers/STM32F4xx_HAL_Driver/Src/stm32f4xx_hal_i2s.c ****   /* Prevent unused argument(s) compilation warning */
 129              		.loc 1 458 0
 130              		.cfi_startproc
 131              		@ args = 0, pretend = 0, frame = 0
 132              		@ frame_needed = 0, uses_anonymous_args = 0
 133              		@ link register save eliminated.
 134              	.LVL7:
 135 0000 7047     		bx	lr
 136              		.cfi_endproc
 137              	.LFE127:
 139              		.section	.text.HAL_I2S_DeInit,"ax",%progbits
 140              		.align	1
 141              		.global	HAL_I2S_DeInit
 142              		.syntax unified
 143              		.thumb
 144              		.thumb_func
 145              		.fpu fpv4-sp-d16
 147              	HAL_I2S_DeInit:
 148              	.LFB125:
 415:Drivers/STM32F4xx_HAL_Driver/Src/stm32f4xx_hal_i2s.c ****   /* Check the I2S handle allocation */
 149              		.loc 1 415 0
 150              		.cfi_startproc
 151              		@ args = 0, pretend = 0, frame = 0
 152              		@ frame_needed = 0, uses_anonymous_args = 0
 153              	.LVL8:
 417:Drivers/STM32F4xx_HAL_Driver/Src/stm32f4xx_hal_i2s.c ****   {
 154              		.loc 1 417 0
 155 0000 68B1     		cbz	r0, .L17
 415:Drivers/STM32F4xx_HAL_Driver/Src/stm32f4xx_hal_i2s.c ****   /* Check the I2S handle allocation */
 156              		.loc 1 415 0
 157 0002 10B5     		push	{r4, lr}
 158              	.LCFI1:
 159              		.cfi_def_cfa_offset 8
 160              		.cfi_offset 4, -8
 161              		.cfi_offset 14, -4
 162 0004 0446     		mov	r4, r0
 422:Drivers/STM32F4xx_HAL_Driver/Src/stm32f4xx_hal_i2s.c **** 
 163              		.loc 1 422 0
 164 0006 0223     		movs	r3, #2
 165 0008 80F84130 		strb	r3, [r0, #65]
 425:Drivers/STM32F4xx_HAL_Driver/Src/stm32f4xx_hal_i2s.c **** 
 166              		.loc 1 425 0
 167 000c FFF7FEFF 		bl	HAL_I2S_MspDeInit
 168              	.LVL9:
 427:Drivers/STM32F4xx_HAL_Driver/Src/stm32f4xx_hal_i2s.c ****   hi2s->State     = HAL_I2S_STATE_RESET;
 169              		.loc 1 427 0
 170 0010 0020     		movs	r0, #0
 171 0012 6064     		str	r0, [r4, #68]
 428:Drivers/STM32F4xx_HAL_Driver/Src/stm32f4xx_hal_i2s.c **** 
 172              		.loc 1 428 0
 173 0014 84F84100 		strb	r0, [r4, #65]
 431:Drivers/STM32F4xx_HAL_Driver/Src/stm32f4xx_hal_i2s.c **** 
 174              		.loc 1 431 0
 175 0018 84F84000 		strb	r0, [r4, #64]
 433:Drivers/STM32F4xx_HAL_Driver/Src/stm32f4xx_hal_i2s.c **** }
 176              		.loc 1 433 0
ARM GAS  C:\Users\Student\AppData\Local\Temp\ccUcoAHh.s 			page 31


 177 001c 10BD     		pop	{r4, pc}
 178              	.LVL10:
 179              	.L17:
 180              	.LCFI2:
 181              		.cfi_def_cfa_offset 0
 182              		.cfi_restore 4
 183              		.cfi_restore 14
 419:Drivers/STM32F4xx_HAL_Driver/Src/stm32f4xx_hal_i2s.c ****   }
 184              		.loc 1 419 0
 185 001e 0120     		movs	r0, #1
 186              	.LVL11:
 187 0020 7047     		bx	lr
 188              		.cfi_endproc
 189              	.LFE125:
 191              		.section	.text.HAL_I2S_Transmit_IT,"ax",%progbits
 192              		.align	1
 193              		.global	HAL_I2S_Transmit_IT
 194              		.syntax unified
 195              		.thumb
 196              		.thumb_func
 197              		.fpu fpv4-sp-d16
 199              	HAL_I2S_Transmit_IT:
 200              	.LFB130:
 731:Drivers/STM32F4xx_HAL_Driver/Src/stm32f4xx_hal_i2s.c ****   uint32_t tmp1 = 0U;
 201              		.loc 1 731 0
 202              		.cfi_startproc
 203              		@ args = 0, pretend = 0, frame = 0
 204              		@ frame_needed = 0, uses_anonymous_args = 0
 205              		@ link register save eliminated.
 206              	.LVL12:
 734:Drivers/STM32F4xx_HAL_Driver/Src/stm32f4xx_hal_i2s.c ****   {
 207              		.loc 1 734 0
 208 0000 90F84130 		ldrb	r3, [r0, #65]	@ zero_extendqisi2
 209 0004 DBB2     		uxtb	r3, r3
 210 0006 012B     		cmp	r3, #1
 211 0008 01D0     		beq	.L32
 777:Drivers/STM32F4xx_HAL_Driver/Src/stm32f4xx_hal_i2s.c ****   }
 212              		.loc 1 777 0
 213 000a 0220     		movs	r0, #2
 214              	.LVL13:
 215 000c 7047     		bx	lr
 216              	.LVL14:
 217              	.L32:
 736:Drivers/STM32F4xx_HAL_Driver/Src/stm32f4xx_hal_i2s.c ****     {
 218              		.loc 1 736 0
 219 000e 0029     		cmp	r1, #0
 220 0010 31D0     		beq	.L29
 736:Drivers/STM32F4xx_HAL_Driver/Src/stm32f4xx_hal_i2s.c ****     {
 221              		.loc 1 736 0 is_stmt 0 discriminator 1
 222 0012 002A     		cmp	r2, #0
 223 0014 31D0     		beq	.L30
 741:Drivers/STM32F4xx_HAL_Driver/Src/stm32f4xx_hal_i2s.c ****     tmp1 = hi2s->Instance->I2SCFGR & (SPI_I2SCFGR_DATLEN | SPI_I2SCFGR_CHLEN);
 224              		.loc 1 741 0 is_stmt 1
 225 0016 4162     		str	r1, [r0, #36]
 742:Drivers/STM32F4xx_HAL_Driver/Src/stm32f4xx_hal_i2s.c ****     if((tmp1 == I2S_DATAFORMAT_24B) || (tmp1 == I2S_DATAFORMAT_32B))
 226              		.loc 1 742 0
 227 0018 0368     		ldr	r3, [r0]
ARM GAS  C:\Users\Student\AppData\Local\Temp\ccUcoAHh.s 			page 32


 228 001a DB69     		ldr	r3, [r3, #28]
 229 001c 03F00703 		and	r3, r3, #7
 230              	.LVL15:
 743:Drivers/STM32F4xx_HAL_Driver/Src/stm32f4xx_hal_i2s.c ****     {
 231              		.loc 1 743 0
 232 0020 032B     		cmp	r3, #3
 233 0022 23D0     		beq	.L24
 743:Drivers/STM32F4xx_HAL_Driver/Src/stm32f4xx_hal_i2s.c ****     {
 234              		.loc 1 743 0 is_stmt 0 discriminator 1
 235 0024 052B     		cmp	r3, #5
 236 0026 21D0     		beq	.L24
 750:Drivers/STM32F4xx_HAL_Driver/Src/stm32f4xx_hal_i2s.c ****       hi2s->TxXferCount = Size;
 237              		.loc 1 750 0 is_stmt 1
 238 0028 0285     		strh	r2, [r0, #40]	@ movhi
 751:Drivers/STM32F4xx_HAL_Driver/Src/stm32f4xx_hal_i2s.c ****     }
 239              		.loc 1 751 0
 240 002a 4285     		strh	r2, [r0, #42]	@ movhi
 241              	.LVL16:
 242              	.L26:
 755:Drivers/STM32F4xx_HAL_Driver/Src/stm32f4xx_hal_i2s.c **** 
 243              		.loc 1 755 0
 244 002c 90F84030 		ldrb	r3, [r0, #64]	@ zero_extendqisi2
 245              	.LVL17:
 246 0030 DBB2     		uxtb	r3, r3
 247 0032 012B     		cmp	r3, #1
 248 0034 23D0     		beq	.L31
 755:Drivers/STM32F4xx_HAL_Driver/Src/stm32f4xx_hal_i2s.c **** 
 249              		.loc 1 755 0 is_stmt 0 discriminator 2
 250 0036 0123     		movs	r3, #1
 251 0038 80F84030 		strb	r3, [r0, #64]
 757:Drivers/STM32F4xx_HAL_Driver/Src/stm32f4xx_hal_i2s.c ****     hi2s->ErrorCode = HAL_I2S_ERROR_NONE;
 252              		.loc 1 757 0 is_stmt 1 discriminator 2
 253 003c 0323     		movs	r3, #3
 254 003e 80F84130 		strb	r3, [r0, #65]
 758:Drivers/STM32F4xx_HAL_Driver/Src/stm32f4xx_hal_i2s.c **** 
 255              		.loc 1 758 0 discriminator 2
 256 0042 0023     		movs	r3, #0
 257 0044 4364     		str	r3, [r0, #68]
 761:Drivers/STM32F4xx_HAL_Driver/Src/stm32f4xx_hal_i2s.c **** 
 258              		.loc 1 761 0 discriminator 2
 259 0046 0268     		ldr	r2, [r0]
 260 0048 5368     		ldr	r3, [r2, #4]
 261 004a 43F0A003 		orr	r3, r3, #160
 262 004e 5360     		str	r3, [r2, #4]
 764:Drivers/STM32F4xx_HAL_Driver/Src/stm32f4xx_hal_i2s.c ****     {
 263              		.loc 1 764 0 discriminator 2
 264 0050 0368     		ldr	r3, [r0]
 265 0052 DA69     		ldr	r2, [r3, #28]
 266 0054 12F4806F 		tst	r2, #1024
 267 0058 03D1     		bne	.L27
 767:Drivers/STM32F4xx_HAL_Driver/Src/stm32f4xx_hal_i2s.c ****     }
 268              		.loc 1 767 0
 269 005a DA69     		ldr	r2, [r3, #28]
 270 005c 42F48062 		orr	r2, r2, #1024
 271 0060 DA61     		str	r2, [r3, #28]
 272              	.L27:
 771:Drivers/STM32F4xx_HAL_Driver/Src/stm32f4xx_hal_i2s.c **** 
ARM GAS  C:\Users\Student\AppData\Local\Temp\ccUcoAHh.s 			page 33


 273              		.loc 1 771 0
 274 0062 0023     		movs	r3, #0
 275 0064 80F84030 		strb	r3, [r0, #64]
 773:Drivers/STM32F4xx_HAL_Driver/Src/stm32f4xx_hal_i2s.c ****   }
 276              		.loc 1 773 0
 277 0068 1846     		mov	r0, r3
 278              	.LVL18:
 279 006a 7047     		bx	lr
 280              	.LVL19:
 281              	.L24:
 745:Drivers/STM32F4xx_HAL_Driver/Src/stm32f4xx_hal_i2s.c ****       hi2s->TxXferCount = (Size << 1U);
 282              		.loc 1 745 0
 283 006c 5200     		lsls	r2, r2, #1
 284              	.LVL20:
 285 006e 92B2     		uxth	r2, r2
 286 0070 0285     		strh	r2, [r0, #40]	@ movhi
 746:Drivers/STM32F4xx_HAL_Driver/Src/stm32f4xx_hal_i2s.c ****     }
 287              		.loc 1 746 0
 288 0072 4285     		strh	r2, [r0, #42]	@ movhi
 289 0074 DAE7     		b	.L26
 290              	.LVL21:
 291              	.L29:
 738:Drivers/STM32F4xx_HAL_Driver/Src/stm32f4xx_hal_i2s.c ****     }
 292              		.loc 1 738 0
 293 0076 0120     		movs	r0, #1
 294              	.LVL22:
 295 0078 7047     		bx	lr
 296              	.LVL23:
 297              	.L30:
 298 007a 0120     		movs	r0, #1
 299              	.LVL24:
 300 007c 7047     		bx	lr
 301              	.LVL25:
 302              	.L31:
 755:Drivers/STM32F4xx_HAL_Driver/Src/stm32f4xx_hal_i2s.c **** 
 303              		.loc 1 755 0
 304 007e 0220     		movs	r0, #2
 305              	.LVL26:
 779:Drivers/STM32F4xx_HAL_Driver/Src/stm32f4xx_hal_i2s.c **** 
 306              		.loc 1 779 0
 307 0080 7047     		bx	lr
 308              		.cfi_endproc
 309              	.LFE130:
 311              		.section	.text.HAL_I2S_Receive_IT,"ax",%progbits
 312              		.align	1
 313              		.global	HAL_I2S_Receive_IT
 314              		.syntax unified
 315              		.thumb
 316              		.thumb_func
 317              		.fpu fpv4-sp-d16
 319              	HAL_I2S_Receive_IT:
 320              	.LFB131:
 798:Drivers/STM32F4xx_HAL_Driver/Src/stm32f4xx_hal_i2s.c ****   uint32_t tmp1 = 0U;
 321              		.loc 1 798 0
 322              		.cfi_startproc
 323              		@ args = 0, pretend = 0, frame = 0
 324              		@ frame_needed = 0, uses_anonymous_args = 0
ARM GAS  C:\Users\Student\AppData\Local\Temp\ccUcoAHh.s 			page 34


 325              		@ link register save eliminated.
 326              	.LVL27:
 801:Drivers/STM32F4xx_HAL_Driver/Src/stm32f4xx_hal_i2s.c ****   {
 327              		.loc 1 801 0
 328 0000 90F84130 		ldrb	r3, [r0, #65]	@ zero_extendqisi2
 329 0004 DBB2     		uxtb	r3, r3
 330 0006 012B     		cmp	r3, #1
 331 0008 01D0     		beq	.L43
 844:Drivers/STM32F4xx_HAL_Driver/Src/stm32f4xx_hal_i2s.c ****   }
 332              		.loc 1 844 0
 333 000a 0220     		movs	r0, #2
 334              	.LVL28:
 335 000c 7047     		bx	lr
 336              	.LVL29:
 337              	.L43:
 803:Drivers/STM32F4xx_HAL_Driver/Src/stm32f4xx_hal_i2s.c ****     {
 338              		.loc 1 803 0
 339 000e 0029     		cmp	r1, #0
 340 0010 31D0     		beq	.L40
 803:Drivers/STM32F4xx_HAL_Driver/Src/stm32f4xx_hal_i2s.c ****     {
 341              		.loc 1 803 0 is_stmt 0 discriminator 1
 342 0012 002A     		cmp	r2, #0
 343 0014 31D0     		beq	.L41
 808:Drivers/STM32F4xx_HAL_Driver/Src/stm32f4xx_hal_i2s.c ****     tmp1 = hi2s->Instance->I2SCFGR & (SPI_I2SCFGR_DATLEN | SPI_I2SCFGR_CHLEN);
 344              		.loc 1 808 0 is_stmt 1
 345 0016 C162     		str	r1, [r0, #44]
 809:Drivers/STM32F4xx_HAL_Driver/Src/stm32f4xx_hal_i2s.c ****     if((tmp1 == I2S_DATAFORMAT_24B) || (tmp1 == I2S_DATAFORMAT_32B))
 346              		.loc 1 809 0
 347 0018 0368     		ldr	r3, [r0]
 348 001a DB69     		ldr	r3, [r3, #28]
 349 001c 03F00703 		and	r3, r3, #7
 350              	.LVL30:
 810:Drivers/STM32F4xx_HAL_Driver/Src/stm32f4xx_hal_i2s.c ****     {
 351              		.loc 1 810 0
 352 0020 032B     		cmp	r3, #3
 353 0022 23D0     		beq	.L35
 810:Drivers/STM32F4xx_HAL_Driver/Src/stm32f4xx_hal_i2s.c ****     {
 354              		.loc 1 810 0 is_stmt 0 discriminator 1
 355 0024 052B     		cmp	r3, #5
 356 0026 21D0     		beq	.L35
 817:Drivers/STM32F4xx_HAL_Driver/Src/stm32f4xx_hal_i2s.c ****       hi2s->RxXferCount = Size;
 357              		.loc 1 817 0 is_stmt 1
 358 0028 0286     		strh	r2, [r0, #48]	@ movhi
 818:Drivers/STM32F4xx_HAL_Driver/Src/stm32f4xx_hal_i2s.c ****     }
 359              		.loc 1 818 0
 360 002a 4286     		strh	r2, [r0, #50]	@ movhi
 361              	.LVL31:
 362              	.L37:
 821:Drivers/STM32F4xx_HAL_Driver/Src/stm32f4xx_hal_i2s.c **** 
 363              		.loc 1 821 0
 364 002c 90F84030 		ldrb	r3, [r0, #64]	@ zero_extendqisi2
 365              	.LVL32:
 366 0030 DBB2     		uxtb	r3, r3
 367 0032 012B     		cmp	r3, #1
 368 0034 23D0     		beq	.L42
 821:Drivers/STM32F4xx_HAL_Driver/Src/stm32f4xx_hal_i2s.c **** 
 369              		.loc 1 821 0 is_stmt 0 discriminator 2
ARM GAS  C:\Users\Student\AppData\Local\Temp\ccUcoAHh.s 			page 35


 370 0036 0123     		movs	r3, #1
 371 0038 80F84030 		strb	r3, [r0, #64]
 823:Drivers/STM32F4xx_HAL_Driver/Src/stm32f4xx_hal_i2s.c ****     hi2s->ErrorCode = HAL_I2S_ERROR_NONE;
 372              		.loc 1 823 0 is_stmt 1 discriminator 2
 373 003c 0423     		movs	r3, #4
 374 003e 80F84130 		strb	r3, [r0, #65]
 824:Drivers/STM32F4xx_HAL_Driver/Src/stm32f4xx_hal_i2s.c **** 
 375              		.loc 1 824 0 discriminator 2
 376 0042 0023     		movs	r3, #0
 377 0044 4364     		str	r3, [r0, #68]
 827:Drivers/STM32F4xx_HAL_Driver/Src/stm32f4xx_hal_i2s.c **** 
 378              		.loc 1 827 0 discriminator 2
 379 0046 0268     		ldr	r2, [r0]
 380 0048 5368     		ldr	r3, [r2, #4]
 381 004a 43F06003 		orr	r3, r3, #96
 382 004e 5360     		str	r3, [r2, #4]
 830:Drivers/STM32F4xx_HAL_Driver/Src/stm32f4xx_hal_i2s.c ****     {
 383              		.loc 1 830 0 discriminator 2
 384 0050 0368     		ldr	r3, [r0]
 385 0052 DA69     		ldr	r2, [r3, #28]
 386 0054 12F4806F 		tst	r2, #1024
 387 0058 03D1     		bne	.L38
 833:Drivers/STM32F4xx_HAL_Driver/Src/stm32f4xx_hal_i2s.c ****     }
 388              		.loc 1 833 0
 389 005a DA69     		ldr	r2, [r3, #28]
 390 005c 42F48062 		orr	r2, r2, #1024
 391 0060 DA61     		str	r2, [r3, #28]
 392              	.L38:
 837:Drivers/STM32F4xx_HAL_Driver/Src/stm32f4xx_hal_i2s.c **** 
 393              		.loc 1 837 0
 394 0062 0023     		movs	r3, #0
 395 0064 80F84030 		strb	r3, [r0, #64]
 839:Drivers/STM32F4xx_HAL_Driver/Src/stm32f4xx_hal_i2s.c ****   }
 396              		.loc 1 839 0
 397 0068 1846     		mov	r0, r3
 398              	.LVL33:
 399 006a 7047     		bx	lr
 400              	.LVL34:
 401              	.L35:
 812:Drivers/STM32F4xx_HAL_Driver/Src/stm32f4xx_hal_i2s.c ****       hi2s->RxXferCount = (Size << 1U);
 402              		.loc 1 812 0
 403 006c 5200     		lsls	r2, r2, #1
 404              	.LVL35:
 405 006e 92B2     		uxth	r2, r2
 406 0070 0286     		strh	r2, [r0, #48]	@ movhi
 813:Drivers/STM32F4xx_HAL_Driver/Src/stm32f4xx_hal_i2s.c ****     }
 407              		.loc 1 813 0
 408 0072 4286     		strh	r2, [r0, #50]	@ movhi
 409 0074 DAE7     		b	.L37
 410              	.LVL36:
 411              	.L40:
 805:Drivers/STM32F4xx_HAL_Driver/Src/stm32f4xx_hal_i2s.c ****     }
 412              		.loc 1 805 0
 413 0076 0120     		movs	r0, #1
 414              	.LVL37:
 415 0078 7047     		bx	lr
 416              	.LVL38:
ARM GAS  C:\Users\Student\AppData\Local\Temp\ccUcoAHh.s 			page 36


 417              	.L41:
 418 007a 0120     		movs	r0, #1
 419              	.LVL39:
 420 007c 7047     		bx	lr
 421              	.LVL40:
 422              	.L42:
 821:Drivers/STM32F4xx_HAL_Driver/Src/stm32f4xx_hal_i2s.c **** 
 423              		.loc 1 821 0
 424 007e 0220     		movs	r0, #2
 425              	.LVL41:
 846:Drivers/STM32F4xx_HAL_Driver/Src/stm32f4xx_hal_i2s.c **** 
 426              		.loc 1 846 0
 427 0080 7047     		bx	lr
 428              		.cfi_endproc
 429              	.LFE131:
 431              		.section	.text.HAL_I2S_Transmit_DMA,"ax",%progbits
 432              		.align	1
 433              		.global	HAL_I2S_Transmit_DMA
 434              		.syntax unified
 435              		.thumb
 436              		.thumb_func
 437              		.fpu fpv4-sp-d16
 439              	HAL_I2S_Transmit_DMA:
 440              	.LFB132:
 863:Drivers/STM32F4xx_HAL_Driver/Src/stm32f4xx_hal_i2s.c ****   uint32_t *tmp = NULL;
 441              		.loc 1 863 0
 442              		.cfi_startproc
 443              		@ args = 0, pretend = 0, frame = 0
 444              		@ frame_needed = 0, uses_anonymous_args = 0
 445              	.LVL42:
 867:Drivers/STM32F4xx_HAL_Driver/Src/stm32f4xx_hal_i2s.c ****   {
 446              		.loc 1 867 0
 447 0000 0029     		cmp	r1, #0
 448 0002 51D0     		beq	.L51
 863:Drivers/STM32F4xx_HAL_Driver/Src/stm32f4xx_hal_i2s.c ****   uint32_t *tmp = NULL;
 449              		.loc 1 863 0 discriminator 1
 450 0004 10B5     		push	{r4, lr}
 451              	.LCFI3:
 452              		.cfi_def_cfa_offset 8
 453              		.cfi_offset 4, -8
 454              		.cfi_offset 14, -4
 455 0006 0C46     		mov	r4, r1
 867:Drivers/STM32F4xx_HAL_Driver/Src/stm32f4xx_hal_i2s.c ****   {
 456              		.loc 1 867 0 discriminator 1
 457 0008 002A     		cmp	r2, #0
 458 000a 4FD0     		beq	.L52
 872:Drivers/STM32F4xx_HAL_Driver/Src/stm32f4xx_hal_i2s.c ****   {
 459              		.loc 1 872 0
 460 000c 90F84130 		ldrb	r3, [r0, #65]	@ zero_extendqisi2
 461 0010 DBB2     		uxtb	r3, r3
 462 0012 012B     		cmp	r3, #1
 463 0014 01D0     		beq	.L59
 927:Drivers/STM32F4xx_HAL_Driver/Src/stm32f4xx_hal_i2s.c ****   }
 464              		.loc 1 927 0
 465 0016 0220     		movs	r0, #2
 466              	.LVL43:
 467 0018 10BD     		pop	{r4, pc}
ARM GAS  C:\Users\Student\AppData\Local\Temp\ccUcoAHh.s 			page 37


 468              	.LVL44:
 469              	.L59:
 874:Drivers/STM32F4xx_HAL_Driver/Src/stm32f4xx_hal_i2s.c ****     tmp1 = hi2s->Instance->I2SCFGR & (SPI_I2SCFGR_DATLEN | SPI_I2SCFGR_CHLEN);
 470              		.loc 1 874 0
 471 001a 4162     		str	r1, [r0, #36]
 875:Drivers/STM32F4xx_HAL_Driver/Src/stm32f4xx_hal_i2s.c ****     if((tmp1 == I2S_DATAFORMAT_24B) || (tmp1 == I2S_DATAFORMAT_32B))
 472              		.loc 1 875 0
 473 001c 0368     		ldr	r3, [r0]
 474 001e DB69     		ldr	r3, [r3, #28]
 475 0020 03F00703 		and	r3, r3, #7
 476              	.LVL45:
 876:Drivers/STM32F4xx_HAL_Driver/Src/stm32f4xx_hal_i2s.c ****     {
 477              		.loc 1 876 0
 478 0024 032B     		cmp	r3, #3
 479 0026 0AD0     		beq	.L46
 876:Drivers/STM32F4xx_HAL_Driver/Src/stm32f4xx_hal_i2s.c ****     {
 480              		.loc 1 876 0 is_stmt 0 discriminator 1
 481 0028 052B     		cmp	r3, #5
 482 002a 08D0     		beq	.L46
 883:Drivers/STM32F4xx_HAL_Driver/Src/stm32f4xx_hal_i2s.c ****       hi2s->TxXferCount = Size;
 483              		.loc 1 883 0 is_stmt 1
 484 002c 0285     		strh	r2, [r0, #40]	@ movhi
 884:Drivers/STM32F4xx_HAL_Driver/Src/stm32f4xx_hal_i2s.c ****     }
 485              		.loc 1 884 0
 486 002e 4285     		strh	r2, [r0, #42]	@ movhi
 487              	.LVL46:
 488              	.L48:
 888:Drivers/STM32F4xx_HAL_Driver/Src/stm32f4xx_hal_i2s.c **** 
 489              		.loc 1 888 0
 490 0030 90F84030 		ldrb	r3, [r0, #64]	@ zero_extendqisi2
 491              	.LVL47:
 492 0034 DBB2     		uxtb	r3, r3
 493 0036 012B     		cmp	r3, #1
 494 0038 06D1     		bne	.L60
 495 003a 0220     		movs	r0, #2
 496              	.LVL48:
 929:Drivers/STM32F4xx_HAL_Driver/Src/stm32f4xx_hal_i2s.c **** 
 497              		.loc 1 929 0
 498 003c 10BD     		pop	{r4, pc}
 499              	.LVL49:
 500              	.L46:
 878:Drivers/STM32F4xx_HAL_Driver/Src/stm32f4xx_hal_i2s.c ****       hi2s->TxXferCount = (Size << 1U);
 501              		.loc 1 878 0
 502 003e 5200     		lsls	r2, r2, #1
 503              	.LVL50:
 504 0040 92B2     		uxth	r2, r2
 505 0042 0285     		strh	r2, [r0, #40]	@ movhi
 879:Drivers/STM32F4xx_HAL_Driver/Src/stm32f4xx_hal_i2s.c ****     }
 506              		.loc 1 879 0
 507 0044 4285     		strh	r2, [r0, #42]	@ movhi
 508 0046 F3E7     		b	.L48
 509              	.LVL51:
 510              	.L60:
 511 0048 2146     		mov	r1, r4
 512              	.LVL52:
 513 004a 0446     		mov	r4, r0
 514              	.LVL53:
ARM GAS  C:\Users\Student\AppData\Local\Temp\ccUcoAHh.s 			page 38


 888:Drivers/STM32F4xx_HAL_Driver/Src/stm32f4xx_hal_i2s.c **** 
 515              		.loc 1 888 0 discriminator 2
 516 004c 0123     		movs	r3, #1
 517 004e 80F84030 		strb	r3, [r0, #64]
 890:Drivers/STM32F4xx_HAL_Driver/Src/stm32f4xx_hal_i2s.c ****     hi2s->State     = HAL_I2S_STATE_BUSY_TX;
 518              		.loc 1 890 0 discriminator 2
 519 0052 0023     		movs	r3, #0
 520 0054 4364     		str	r3, [r0, #68]
 891:Drivers/STM32F4xx_HAL_Driver/Src/stm32f4xx_hal_i2s.c **** 
 521              		.loc 1 891 0 discriminator 2
 522 0056 0323     		movs	r3, #3
 523 0058 80F84130 		strb	r3, [r0, #65]
 894:Drivers/STM32F4xx_HAL_Driver/Src/stm32f4xx_hal_i2s.c **** 
 524              		.loc 1 894 0 discriminator 2
 525 005c 836B     		ldr	r3, [r0, #56]
 526 005e 144A     		ldr	r2, .L61
 527 0060 1A64     		str	r2, [r3, #64]
 528              	.LVL54:
 897:Drivers/STM32F4xx_HAL_Driver/Src/stm32f4xx_hal_i2s.c **** 
 529              		.loc 1 897 0 discriminator 2
 530 0062 836B     		ldr	r3, [r0, #56]
 531 0064 134A     		ldr	r2, .L61+4
 532 0066 DA63     		str	r2, [r3, #60]
 900:Drivers/STM32F4xx_HAL_Driver/Src/stm32f4xx_hal_i2s.c **** 
 533              		.loc 1 900 0 discriminator 2
 534 0068 836B     		ldr	r3, [r0, #56]
 535 006a 134A     		ldr	r2, .L61+8
 536 006c DA64     		str	r2, [r3, #76]
 537              	.LVL55:
 904:Drivers/STM32F4xx_HAL_Driver/Src/stm32f4xx_hal_i2s.c **** 
 538              		.loc 1 904 0 discriminator 2
 539 006e 0268     		ldr	r2, [r0]
 540 0070 038D     		ldrh	r3, [r0, #40]
 541 0072 9BB2     		uxth	r3, r3
 542 0074 0C32     		adds	r2, r2, #12
 543 0076 806B     		ldr	r0, [r0, #56]
 544              	.LVL56:
 545 0078 FFF7FEFF 		bl	HAL_DMA_Start_IT
 546              	.LVL57:
 907:Drivers/STM32F4xx_HAL_Driver/Src/stm32f4xx_hal_i2s.c ****     {
 547              		.loc 1 907 0 discriminator 2
 548 007c 2368     		ldr	r3, [r4]
 549 007e DA69     		ldr	r2, [r3, #28]
 550 0080 12F4806F 		tst	r2, #1024
 551 0084 03D1     		bne	.L49
 910:Drivers/STM32F4xx_HAL_Driver/Src/stm32f4xx_hal_i2s.c ****     }
 552              		.loc 1 910 0
 553 0086 DA69     		ldr	r2, [r3, #28]
 554 0088 42F48062 		orr	r2, r2, #1024
 555 008c DA61     		str	r2, [r3, #28]
 556              	.L49:
 914:Drivers/STM32F4xx_HAL_Driver/Src/stm32f4xx_hal_i2s.c ****     {
 557              		.loc 1 914 0
 558 008e 2368     		ldr	r3, [r4]
 559 0090 5A68     		ldr	r2, [r3, #4]
 560 0092 12F0020F 		tst	r2, #2
 561 0096 03D1     		bne	.L50
ARM GAS  C:\Users\Student\AppData\Local\Temp\ccUcoAHh.s 			page 39


 917:Drivers/STM32F4xx_HAL_Driver/Src/stm32f4xx_hal_i2s.c ****     }
 562              		.loc 1 917 0
 563 0098 5A68     		ldr	r2, [r3, #4]
 564 009a 42F00202 		orr	r2, r2, #2
 565 009e 5A60     		str	r2, [r3, #4]
 566              	.L50:
 921:Drivers/STM32F4xx_HAL_Driver/Src/stm32f4xx_hal_i2s.c **** 
 567              		.loc 1 921 0
 568 00a0 0020     		movs	r0, #0
 569 00a2 84F84000 		strb	r0, [r4, #64]
 923:Drivers/STM32F4xx_HAL_Driver/Src/stm32f4xx_hal_i2s.c ****   }
 570              		.loc 1 923 0
 571 00a6 10BD     		pop	{r4, pc}
 572              	.LVL58:
 573              	.L51:
 574              	.LCFI4:
 575              		.cfi_def_cfa_offset 0
 576              		.cfi_restore 4
 577              		.cfi_restore 14
 869:Drivers/STM32F4xx_HAL_Driver/Src/stm32f4xx_hal_i2s.c ****   }
 578              		.loc 1 869 0
 579 00a8 0120     		movs	r0, #1
 580              	.LVL59:
 581 00aa 7047     		bx	lr
 582              	.LVL60:
 583              	.L52:
 584              	.LCFI5:
 585              		.cfi_def_cfa_offset 8
 586              		.cfi_offset 4, -8
 587              		.cfi_offset 14, -4
 588 00ac 0120     		movs	r0, #1
 589              	.LVL61:
 590 00ae 10BD     		pop	{r4, pc}
 591              	.L62:
 592              		.align	2
 593              	.L61:
 594 00b0 00000000 		.word	I2S_DMATxHalfCplt
 595 00b4 00000000 		.word	I2S_DMATxCplt
 596 00b8 00000000 		.word	I2S_DMAError
 597              		.cfi_endproc
 598              	.LFE132:
 600              		.section	.text.HAL_I2S_Receive_DMA,"ax",%progbits
 601              		.align	1
 602              		.global	HAL_I2S_Receive_DMA
 603              		.syntax unified
 604              		.thumb
 605              		.thumb_func
 606              		.fpu fpv4-sp-d16
 608              	HAL_I2S_Receive_DMA:
 609              	.LFB133:
 946:Drivers/STM32F4xx_HAL_Driver/Src/stm32f4xx_hal_i2s.c ****   uint32_t *tmp = NULL;
 610              		.loc 1 946 0
 611              		.cfi_startproc
 612              		@ args = 0, pretend = 0, frame = 8
 613              		@ frame_needed = 0, uses_anonymous_args = 0
 614              	.LVL62:
 950:Drivers/STM32F4xx_HAL_Driver/Src/stm32f4xx_hal_i2s.c ****   {
ARM GAS  C:\Users\Student\AppData\Local\Temp\ccUcoAHh.s 			page 40


 615              		.loc 1 950 0
 616 0000 0029     		cmp	r1, #0
 617 0002 5FD0     		beq	.L71
 946:Drivers/STM32F4xx_HAL_Driver/Src/stm32f4xx_hal_i2s.c ****   uint32_t *tmp = NULL;
 618              		.loc 1 946 0 discriminator 1
 619 0004 10B5     		push	{r4, lr}
 620              	.LCFI6:
 621              		.cfi_def_cfa_offset 8
 622              		.cfi_offset 4, -8
 623              		.cfi_offset 14, -4
 624 0006 82B0     		sub	sp, sp, #8
 625              	.LCFI7:
 626              		.cfi_def_cfa_offset 16
 627 0008 0C46     		mov	r4, r1
 950:Drivers/STM32F4xx_HAL_Driver/Src/stm32f4xx_hal_i2s.c ****   {
 628              		.loc 1 950 0 discriminator 1
 629 000a 002A     		cmp	r2, #0
 630 000c 5CD0     		beq	.L72
 955:Drivers/STM32F4xx_HAL_Driver/Src/stm32f4xx_hal_i2s.c ****   {
 631              		.loc 1 955 0
 632 000e 90F84130 		ldrb	r3, [r0, #65]	@ zero_extendqisi2
 633 0012 DBB2     		uxtb	r3, r3
 634 0014 012B     		cmp	r3, #1
 635 0016 02D0     		beq	.L79
1017:Drivers/STM32F4xx_HAL_Driver/Src/stm32f4xx_hal_i2s.c ****   }
 636              		.loc 1 1017 0
 637 0018 0220     		movs	r0, #2
 638              	.LVL63:
 639              	.L64:
1019:Drivers/STM32F4xx_HAL_Driver/Src/stm32f4xx_hal_i2s.c **** 
 640              		.loc 1 1019 0
 641 001a 02B0     		add	sp, sp, #8
 642              	.LCFI8:
 643              		.cfi_remember_state
 644              		.cfi_def_cfa_offset 8
 645              		@ sp needed
 646 001c 10BD     		pop	{r4, pc}
 647              	.LVL64:
 648              	.L79:
 649              	.LCFI9:
 650              		.cfi_restore_state
 957:Drivers/STM32F4xx_HAL_Driver/Src/stm32f4xx_hal_i2s.c ****     tmp1 = hi2s->Instance->I2SCFGR & (SPI_I2SCFGR_DATLEN | SPI_I2SCFGR_CHLEN);
 651              		.loc 1 957 0
 652 001e C162     		str	r1, [r0, #44]
 958:Drivers/STM32F4xx_HAL_Driver/Src/stm32f4xx_hal_i2s.c ****     if((tmp1 == I2S_DATAFORMAT_24B) || (tmp1 == I2S_DATAFORMAT_32B))
 653              		.loc 1 958 0
 654 0020 0368     		ldr	r3, [r0]
 655 0022 DB69     		ldr	r3, [r3, #28]
 656 0024 03F00703 		and	r3, r3, #7
 657              	.LVL65:
 959:Drivers/STM32F4xx_HAL_Driver/Src/stm32f4xx_hal_i2s.c ****     {
 658              		.loc 1 959 0
 659 0028 032B     		cmp	r3, #3
 660 002a 3ED0     		beq	.L65
 959:Drivers/STM32F4xx_HAL_Driver/Src/stm32f4xx_hal_i2s.c ****     {
 661              		.loc 1 959 0 is_stmt 0 discriminator 1
 662 002c 052B     		cmp	r3, #5
ARM GAS  C:\Users\Student\AppData\Local\Temp\ccUcoAHh.s 			page 41


 663 002e 3CD0     		beq	.L65
 966:Drivers/STM32F4xx_HAL_Driver/Src/stm32f4xx_hal_i2s.c ****       hi2s->RxXferCount = Size;
 664              		.loc 1 966 0 is_stmt 1
 665 0030 0286     		strh	r2, [r0, #48]	@ movhi
 967:Drivers/STM32F4xx_HAL_Driver/Src/stm32f4xx_hal_i2s.c ****     }
 666              		.loc 1 967 0
 667 0032 4286     		strh	r2, [r0, #50]	@ movhi
 668              	.LVL66:
 669              	.L67:
 970:Drivers/STM32F4xx_HAL_Driver/Src/stm32f4xx_hal_i2s.c **** 
 670              		.loc 1 970 0
 671 0034 90F84030 		ldrb	r3, [r0, #64]	@ zero_extendqisi2
 672 0038 DBB2     		uxtb	r3, r3
 673 003a 012B     		cmp	r3, #1
 674 003c 46D0     		beq	.L74
 970:Drivers/STM32F4xx_HAL_Driver/Src/stm32f4xx_hal_i2s.c **** 
 675              		.loc 1 970 0 is_stmt 0 discriminator 2
 676 003e 0123     		movs	r3, #1
 677 0040 80F84030 		strb	r3, [r0, #64]
 972:Drivers/STM32F4xx_HAL_Driver/Src/stm32f4xx_hal_i2s.c ****     hi2s->ErrorCode = HAL_I2S_ERROR_NONE;
 678              		.loc 1 972 0 is_stmt 1 discriminator 2
 679 0044 0423     		movs	r3, #4
 680 0046 80F84130 		strb	r3, [r0, #65]
 973:Drivers/STM32F4xx_HAL_Driver/Src/stm32f4xx_hal_i2s.c **** 
 681              		.loc 1 973 0 discriminator 2
 682 004a 0023     		movs	r3, #0
 683 004c 4364     		str	r3, [r0, #68]
 976:Drivers/STM32F4xx_HAL_Driver/Src/stm32f4xx_hal_i2s.c **** 
 684              		.loc 1 976 0 discriminator 2
 685 004e C36B     		ldr	r3, [r0, #60]
 686 0050 1F4A     		ldr	r2, .L81
 687              	.LVL67:
 688 0052 1A64     		str	r2, [r3, #64]
 979:Drivers/STM32F4xx_HAL_Driver/Src/stm32f4xx_hal_i2s.c **** 
 689              		.loc 1 979 0 discriminator 2
 690 0054 C36B     		ldr	r3, [r0, #60]
 691 0056 1F4A     		ldr	r2, .L81+4
 692 0058 DA63     		str	r2, [r3, #60]
 982:Drivers/STM32F4xx_HAL_Driver/Src/stm32f4xx_hal_i2s.c **** 
 693              		.loc 1 982 0 discriminator 2
 694 005a C36B     		ldr	r3, [r0, #60]
 695 005c 1E4A     		ldr	r2, .L81+8
 696 005e DA64     		str	r2, [r3, #76]
 985:Drivers/STM32F4xx_HAL_Driver/Src/stm32f4xx_hal_i2s.c ****     {
 697              		.loc 1 985 0 discriminator 2
 698 0060 0168     		ldr	r1, [r0]
 699              	.LVL68:
 700 0062 CB69     		ldr	r3, [r1, #28]
 701 0064 03F44073 		and	r3, r3, #768
 702 0068 B3F5407F 		cmp	r3, #768
 703 006c 22D0     		beq	.L80
 704              	.L68:
 705 006e 2246     		mov	r2, r4
 706 0070 0446     		mov	r4, r0
 707              	.LVL69:
 994:Drivers/STM32F4xx_HAL_Driver/Src/stm32f4xx_hal_i2s.c **** 
 708              		.loc 1 994 0
ARM GAS  C:\Users\Student\AppData\Local\Temp\ccUcoAHh.s 			page 42


 709 0072 038E     		ldrh	r3, [r0, #48]
 710 0074 9BB2     		uxth	r3, r3
 711 0076 0C31     		adds	r1, r1, #12
 712 0078 C06B     		ldr	r0, [r0, #60]
 713              	.LVL70:
 714 007a FFF7FEFF 		bl	HAL_DMA_Start_IT
 715              	.LVL71:
 997:Drivers/STM32F4xx_HAL_Driver/Src/stm32f4xx_hal_i2s.c ****     {
 716              		.loc 1 997 0
 717 007e 2368     		ldr	r3, [r4]
 718 0080 DA69     		ldr	r2, [r3, #28]
 719 0082 12F4806F 		tst	r2, #1024
 720 0086 03D1     		bne	.L69
1000:Drivers/STM32F4xx_HAL_Driver/Src/stm32f4xx_hal_i2s.c ****     }
 721              		.loc 1 1000 0
 722 0088 DA69     		ldr	r2, [r3, #28]
 723 008a 42F48062 		orr	r2, r2, #1024
 724 008e DA61     		str	r2, [r3, #28]
 725              	.L69:
1004:Drivers/STM32F4xx_HAL_Driver/Src/stm32f4xx_hal_i2s.c ****     {
 726              		.loc 1 1004 0
 727 0090 2368     		ldr	r3, [r4]
 728 0092 5A68     		ldr	r2, [r3, #4]
 729 0094 12F0010F 		tst	r2, #1
 730 0098 03D1     		bne	.L70
1007:Drivers/STM32F4xx_HAL_Driver/Src/stm32f4xx_hal_i2s.c ****     }
 731              		.loc 1 1007 0
 732 009a 5A68     		ldr	r2, [r3, #4]
 733 009c 42F00102 		orr	r2, r2, #1
 734 00a0 5A60     		str	r2, [r3, #4]
 735              	.L70:
1011:Drivers/STM32F4xx_HAL_Driver/Src/stm32f4xx_hal_i2s.c **** 
 736              		.loc 1 1011 0
 737 00a2 0020     		movs	r0, #0
 738 00a4 84F84000 		strb	r0, [r4, #64]
1013:Drivers/STM32F4xx_HAL_Driver/Src/stm32f4xx_hal_i2s.c ****   }
 739              		.loc 1 1013 0
 740 00a8 B7E7     		b	.L64
 741              	.LVL72:
 742              	.L65:
 961:Drivers/STM32F4xx_HAL_Driver/Src/stm32f4xx_hal_i2s.c ****       hi2s->RxXferCount = (Size << 1U);
 743              		.loc 1 961 0
 744 00aa 5300     		lsls	r3, r2, #1
 745              	.LVL73:
 746 00ac 9BB2     		uxth	r3, r3
 747 00ae 0386     		strh	r3, [r0, #48]	@ movhi
 962:Drivers/STM32F4xx_HAL_Driver/Src/stm32f4xx_hal_i2s.c ****     }
 748              		.loc 1 962 0
 749 00b0 4386     		strh	r3, [r0, #50]	@ movhi
 750 00b2 BFE7     		b	.L67
 751              	.LVL74:
 752              	.L80:
 753              	.LBB2:
 989:Drivers/STM32F4xx_HAL_Driver/Src/stm32f4xx_hal_i2s.c ****     }
 754              		.loc 1 989 0
 755 00b4 0023     		movs	r3, #0
 756 00b6 0193     		str	r3, [sp, #4]
ARM GAS  C:\Users\Student\AppData\Local\Temp\ccUcoAHh.s 			page 43


 757 00b8 CB68     		ldr	r3, [r1, #12]
 758 00ba 0193     		str	r3, [sp, #4]
 759 00bc 8B68     		ldr	r3, [r1, #8]
 760 00be 0193     		str	r3, [sp, #4]
 761 00c0 019B     		ldr	r3, [sp, #4]
 762 00c2 D4E7     		b	.L68
 763              	.LVL75:
 764              	.L71:
 765              	.LCFI10:
 766              		.cfi_def_cfa_offset 0
 767              		.cfi_restore 4
 768              		.cfi_restore 14
 769              	.LBE2:
 952:Drivers/STM32F4xx_HAL_Driver/Src/stm32f4xx_hal_i2s.c ****   }
 770              		.loc 1 952 0
 771 00c4 0120     		movs	r0, #1
 772              	.LVL76:
 773 00c6 7047     		bx	lr
 774              	.LVL77:
 775              	.L72:
 776              	.LCFI11:
 777              		.cfi_def_cfa_offset 16
 778              		.cfi_offset 4, -8
 779              		.cfi_offset 14, -4
 780 00c8 0120     		movs	r0, #1
 781              	.LVL78:
 782 00ca A6E7     		b	.L64
 783              	.LVL79:
 784              	.L74:
 970:Drivers/STM32F4xx_HAL_Driver/Src/stm32f4xx_hal_i2s.c **** 
 785              		.loc 1 970 0
 786 00cc 0220     		movs	r0, #2
 787              	.LVL80:
 788 00ce A4E7     		b	.L64
 789              	.L82:
 790              		.align	2
 791              	.L81:
 792 00d0 00000000 		.word	I2S_DMARxHalfCplt
 793 00d4 00000000 		.word	I2S_DMARxCplt
 794 00d8 00000000 		.word	I2S_DMAError
 795              		.cfi_endproc
 796              	.LFE133:
 798              		.section	.text.HAL_I2S_DMAPause,"ax",%progbits
 799              		.align	1
 800              		.global	HAL_I2S_DMAPause
 801              		.syntax unified
 802              		.thumb
 803              		.thumb_func
 804              		.fpu fpv4-sp-d16
 806              	HAL_I2S_DMAPause:
 807              	.LFB134:
1028:Drivers/STM32F4xx_HAL_Driver/Src/stm32f4xx_hal_i2s.c ****   /* Process Locked */
 808              		.loc 1 1028 0
 809              		.cfi_startproc
 810              		@ args = 0, pretend = 0, frame = 0
 811              		@ frame_needed = 0, uses_anonymous_args = 0
 812              		@ link register save eliminated.
ARM GAS  C:\Users\Student\AppData\Local\Temp\ccUcoAHh.s 			page 44


 813              	.LVL81:
1030:Drivers/STM32F4xx_HAL_Driver/Src/stm32f4xx_hal_i2s.c **** 
 814              		.loc 1 1030 0
 815 0000 90F84030 		ldrb	r3, [r0, #64]	@ zero_extendqisi2
 816 0004 DBB2     		uxtb	r3, r3
 817 0006 012B     		cmp	r3, #1
 818 0008 34D0     		beq	.L89
1030:Drivers/STM32F4xx_HAL_Driver/Src/stm32f4xx_hal_i2s.c **** 
 819              		.loc 1 1030 0 is_stmt 0 discriminator 2
 820 000a 0123     		movs	r3, #1
 821 000c 80F84030 		strb	r3, [r0, #64]
1032:Drivers/STM32F4xx_HAL_Driver/Src/stm32f4xx_hal_i2s.c ****   {
 822              		.loc 1 1032 0 is_stmt 1 discriminator 2
 823 0010 90F84130 		ldrb	r3, [r0, #65]	@ zero_extendqisi2
 824 0014 DBB2     		uxtb	r3, r3
 825 0016 032B     		cmp	r3, #3
 826 0018 0ED0     		beq	.L91
1037:Drivers/STM32F4xx_HAL_Driver/Src/stm32f4xx_hal_i2s.c ****   {
 827              		.loc 1 1037 0
 828 001a 90F84130 		ldrb	r3, [r0, #65]	@ zero_extendqisi2
 829 001e DBB2     		uxtb	r3, r3
 830 0020 042B     		cmp	r3, #4
 831 0022 0FD0     		beq	.L92
1043:Drivers/STM32F4xx_HAL_Driver/Src/stm32f4xx_hal_i2s.c ****   {
 832              		.loc 1 1043 0
 833 0024 90F84130 		ldrb	r3, [r0, #65]	@ zero_extendqisi2
 834 0028 DBB2     		uxtb	r3, r3
 835 002a 052B     		cmp	r3, #5
 836 002c 10D0     		beq	.L93
 837              	.L86:
1052:Drivers/STM32F4xx_HAL_Driver/Src/stm32f4xx_hal_i2s.c **** 
 838              		.loc 1 1052 0
 839 002e 0023     		movs	r3, #0
 840 0030 80F84030 		strb	r3, [r0, #64]
1054:Drivers/STM32F4xx_HAL_Driver/Src/stm32f4xx_hal_i2s.c **** }
 841              		.loc 1 1054 0
 842 0034 1846     		mov	r0, r3
 843              	.LVL82:
 844 0036 7047     		bx	lr
 845              	.LVL83:
 846              	.L91:
1035:Drivers/STM32F4xx_HAL_Driver/Src/stm32f4xx_hal_i2s.c ****   }
 847              		.loc 1 1035 0
 848 0038 0268     		ldr	r2, [r0]
 849 003a 5368     		ldr	r3, [r2, #4]
 850 003c 23F00203 		bic	r3, r3, #2
 851 0040 5360     		str	r3, [r2, #4]
 852 0042 F4E7     		b	.L86
 853              	.L92:
1040:Drivers/STM32F4xx_HAL_Driver/Src/stm32f4xx_hal_i2s.c ****   }
 854              		.loc 1 1040 0
 855 0044 0268     		ldr	r2, [r0]
 856 0046 5368     		ldr	r3, [r2, #4]
 857 0048 23F00103 		bic	r3, r3, #1
 858 004c 5360     		str	r3, [r2, #4]
 859 004e EEE7     		b	.L86
 860              	.L93:
ARM GAS  C:\Users\Student\AppData\Local\Temp\ccUcoAHh.s 			page 45


1046:Drivers/STM32F4xx_HAL_Driver/Src/stm32f4xx_hal_i2s.c ****     CLEAR_BIT(I2SxEXT(hi2s->Instance)->CR2,(SPI_CR2_TXDMAEN|SPI_CR2_RXDMAEN));
 861              		.loc 1 1046 0
 862 0050 0268     		ldr	r2, [r0]
 863 0052 5368     		ldr	r3, [r2, #4]
 864 0054 23F00303 		bic	r3, r3, #3
 865 0058 5360     		str	r3, [r2, #4]
1047:Drivers/STM32F4xx_HAL_Driver/Src/stm32f4xx_hal_i2s.c ****   }
 866              		.loc 1 1047 0
 867 005a 0268     		ldr	r2, [r0]
 868 005c 064B     		ldr	r3, .L95
 869 005e 9A42     		cmp	r2, r3
 870 0060 06D0     		beq	.L94
 871 0062 4FF04022 		mov	r2, #1073758208
 872              	.L88:
1047:Drivers/STM32F4xx_HAL_Driver/Src/stm32f4xx_hal_i2s.c ****   }
 873              		.loc 1 1047 0 is_stmt 0 discriminator 4
 874 0066 5368     		ldr	r3, [r2, #4]
 875 0068 23F00303 		bic	r3, r3, #3
 876 006c 5360     		str	r3, [r2, #4]
 877 006e DEE7     		b	.L86
 878              	.L94:
1047:Drivers/STM32F4xx_HAL_Driver/Src/stm32f4xx_hal_i2s.c ****   }
 879              		.loc 1 1047 0
 880 0070 024A     		ldr	r2, .L95+4
 881 0072 F8E7     		b	.L88
 882              	.L89:
1030:Drivers/STM32F4xx_HAL_Driver/Src/stm32f4xx_hal_i2s.c **** 
 883              		.loc 1 1030 0 is_stmt 1
 884 0074 0220     		movs	r0, #2
 885              	.LVL84:
1055:Drivers/STM32F4xx_HAL_Driver/Src/stm32f4xx_hal_i2s.c **** 
 886              		.loc 1 1055 0
 887 0076 7047     		bx	lr
 888              	.L96:
 889              		.align	2
 890              	.L95:
 891 0078 00380040 		.word	1073756160
 892 007c 00340040 		.word	1073755136
 893              		.cfi_endproc
 894              	.LFE134:
 896              		.section	.text.HAL_I2S_DMAResume,"ax",%progbits
 897              		.align	1
 898              		.global	HAL_I2S_DMAResume
 899              		.syntax unified
 900              		.thumb
 901              		.thumb_func
 902              		.fpu fpv4-sp-d16
 904              	HAL_I2S_DMAResume:
 905              	.LFB135:
1064:Drivers/STM32F4xx_HAL_Driver/Src/stm32f4xx_hal_i2s.c ****   /* Process Locked */
 906              		.loc 1 1064 0
 907              		.cfi_startproc
 908              		@ args = 0, pretend = 0, frame = 0
 909              		@ frame_needed = 0, uses_anonymous_args = 0
 910              		@ link register save eliminated.
 911              	.LVL85:
1066:Drivers/STM32F4xx_HAL_Driver/Src/stm32f4xx_hal_i2s.c **** 
ARM GAS  C:\Users\Student\AppData\Local\Temp\ccUcoAHh.s 			page 46


 912              		.loc 1 1066 0
 913 0000 90F84030 		ldrb	r3, [r0, #64]	@ zero_extendqisi2
 914 0004 DBB2     		uxtb	r3, r3
 915 0006 012B     		cmp	r3, #1
 916 0008 4ED0     		beq	.L105
1066:Drivers/STM32F4xx_HAL_Driver/Src/stm32f4xx_hal_i2s.c **** 
 917              		.loc 1 1066 0 is_stmt 0 discriminator 2
 918 000a 0123     		movs	r3, #1
 919 000c 80F84030 		strb	r3, [r0, #64]
1068:Drivers/STM32F4xx_HAL_Driver/Src/stm32f4xx_hal_i2s.c ****   {
 920              		.loc 1 1068 0 is_stmt 1 discriminator 2
 921 0010 90F84130 		ldrb	r3, [r0, #65]	@ zero_extendqisi2
 922 0014 DBB2     		uxtb	r3, r3
 923 0016 032B     		cmp	r3, #3
 924 0018 17D0     		beq	.L108
1073:Drivers/STM32F4xx_HAL_Driver/Src/stm32f4xx_hal_i2s.c ****   {
 925              		.loc 1 1073 0
 926 001a 90F84130 		ldrb	r3, [r0, #65]	@ zero_extendqisi2
 927 001e DBB2     		uxtb	r3, r3
 928 0020 042B     		cmp	r3, #4
 929 0022 18D0     		beq	.L109
1079:Drivers/STM32F4xx_HAL_Driver/Src/stm32f4xx_hal_i2s.c ****   {
 930              		.loc 1 1079 0
 931 0024 90F84130 		ldrb	r3, [r0, #65]	@ zero_extendqisi2
 932 0028 DBB2     		uxtb	r3, r3
 933 002a 052B     		cmp	r3, #5
 934 002c 19D0     		beq	.L110
 935              	.L100:
1095:Drivers/STM32F4xx_HAL_Driver/Src/stm32f4xx_hal_i2s.c ****   {
 936              		.loc 1 1095 0
 937 002e 0368     		ldr	r3, [r0]
 938 0030 DA69     		ldr	r2, [r3, #28]
 939 0032 12F4806F 		tst	r2, #1024
 940 0036 03D1     		bne	.L104
1098:Drivers/STM32F4xx_HAL_Driver/Src/stm32f4xx_hal_i2s.c ****   }
 941              		.loc 1 1098 0
 942 0038 DA69     		ldr	r2, [r3, #28]
 943 003a 42F48062 		orr	r2, r2, #1024
 944 003e DA61     		str	r2, [r3, #28]
 945              	.L104:
1102:Drivers/STM32F4xx_HAL_Driver/Src/stm32f4xx_hal_i2s.c **** 
 946              		.loc 1 1102 0
 947 0040 0023     		movs	r3, #0
 948 0042 80F84030 		strb	r3, [r0, #64]
1104:Drivers/STM32F4xx_HAL_Driver/Src/stm32f4xx_hal_i2s.c **** }
 949              		.loc 1 1104 0
 950 0046 1846     		mov	r0, r3
 951              	.LVL86:
 952 0048 7047     		bx	lr
 953              	.LVL87:
 954              	.L108:
1071:Drivers/STM32F4xx_HAL_Driver/Src/stm32f4xx_hal_i2s.c ****   }
 955              		.loc 1 1071 0
 956 004a 0268     		ldr	r2, [r0]
 957 004c 5368     		ldr	r3, [r2, #4]
 958 004e 43F00203 		orr	r3, r3, #2
 959 0052 5360     		str	r3, [r2, #4]
ARM GAS  C:\Users\Student\AppData\Local\Temp\ccUcoAHh.s 			page 47


 960 0054 EBE7     		b	.L100
 961              	.L109:
1076:Drivers/STM32F4xx_HAL_Driver/Src/stm32f4xx_hal_i2s.c ****   }
 962              		.loc 1 1076 0
 963 0056 0268     		ldr	r2, [r0]
 964 0058 5368     		ldr	r3, [r2, #4]
 965 005a 43F00103 		orr	r3, r3, #1
 966 005e 5360     		str	r3, [r2, #4]
 967 0060 E5E7     		b	.L100
 968              	.L110:
1082:Drivers/STM32F4xx_HAL_Driver/Src/stm32f4xx_hal_i2s.c ****     SET_BIT(I2SxEXT(hi2s->Instance)->CR2,(SPI_CR2_RXDMAEN | SPI_CR2_TXDMAEN));
 969              		.loc 1 1082 0
 970 0062 0268     		ldr	r2, [r0]
 971 0064 5368     		ldr	r3, [r2, #4]
 972 0066 43F00303 		orr	r3, r3, #3
 973 006a 5360     		str	r3, [r2, #4]
1083:Drivers/STM32F4xx_HAL_Driver/Src/stm32f4xx_hal_i2s.c **** 
 974              		.loc 1 1083 0
 975 006c 0268     		ldr	r2, [r0]
 976 006e 0F4B     		ldr	r3, .L113
 977 0070 9A42     		cmp	r2, r3
 978 0072 14D0     		beq	.L111
 979 0074 4FF04022 		mov	r2, #1073758208
 980              	.L102:
1083:Drivers/STM32F4xx_HAL_Driver/Src/stm32f4xx_hal_i2s.c **** 
 981              		.loc 1 1083 0 is_stmt 0 discriminator 4
 982 0078 5368     		ldr	r3, [r2, #4]
 983 007a 43F00303 		orr	r3, r3, #3
 984 007e 5360     		str	r3, [r2, #4]
1086:Drivers/STM32F4xx_HAL_Driver/Src/stm32f4xx_hal_i2s.c ****     {
 985              		.loc 1 1086 0 is_stmt 1 discriminator 4
 986 0080 0268     		ldr	r2, [r0]
 987 0082 0A4B     		ldr	r3, .L113
 988 0084 9A42     		cmp	r2, r3
 989 0086 0CD0     		beq	.L112
1086:Drivers/STM32F4xx_HAL_Driver/Src/stm32f4xx_hal_i2s.c ****     {
 990              		.loc 1 1086 0 is_stmt 0
 991 0088 4FF04023 		mov	r3, #1073758208
 992              	.L103:
1086:Drivers/STM32F4xx_HAL_Driver/Src/stm32f4xx_hal_i2s.c ****     {
 993              		.loc 1 1086 0 discriminator 4
 994 008c DA69     		ldr	r2, [r3, #28]
 995 008e 12F4806F 		tst	r2, #1024
 996 0092 CCD1     		bne	.L100
1089:Drivers/STM32F4xx_HAL_Driver/Src/stm32f4xx_hal_i2s.c ****     }
 997              		.loc 1 1089 0 is_stmt 1 discriminator 8
 998 0094 DA69     		ldr	r2, [r3, #28]
 999 0096 42F48062 		orr	r2, r2, #1024
 1000 009a DA61     		str	r2, [r3, #28]
 1001 009c C7E7     		b	.L100
 1002              	.L111:
1083:Drivers/STM32F4xx_HAL_Driver/Src/stm32f4xx_hal_i2s.c **** 
 1003              		.loc 1 1083 0
 1004 009e 044A     		ldr	r2, .L113+4
 1005 00a0 EAE7     		b	.L102
 1006              	.L112:
1086:Drivers/STM32F4xx_HAL_Driver/Src/stm32f4xx_hal_i2s.c ****     {
ARM GAS  C:\Users\Student\AppData\Local\Temp\ccUcoAHh.s 			page 48


 1007              		.loc 1 1086 0
 1008 00a2 A3F58063 		sub	r3, r3, #1024
 1009 00a6 F1E7     		b	.L103
 1010              	.L105:
1066:Drivers/STM32F4xx_HAL_Driver/Src/stm32f4xx_hal_i2s.c **** 
 1011              		.loc 1 1066 0
 1012 00a8 0220     		movs	r0, #2
 1013              	.LVL88:
1105:Drivers/STM32F4xx_HAL_Driver/Src/stm32f4xx_hal_i2s.c **** 
 1014              		.loc 1 1105 0
 1015 00aa 7047     		bx	lr
 1016              	.L114:
 1017              		.align	2
 1018              	.L113:
 1019 00ac 00380040 		.word	1073756160
 1020 00b0 00340040 		.word	1073755136
 1021              		.cfi_endproc
 1022              	.LFE135:
 1024              		.section	.text.HAL_I2S_DMAStop,"ax",%progbits
 1025              		.align	1
 1026              		.global	HAL_I2S_DMAStop
 1027              		.syntax unified
 1028              		.thumb
 1029              		.thumb_func
 1030              		.fpu fpv4-sp-d16
 1032              	HAL_I2S_DMAStop:
 1033              	.LFB136:
1114:Drivers/STM32F4xx_HAL_Driver/Src/stm32f4xx_hal_i2s.c ****   /* Process Locked */
 1034              		.loc 1 1114 0
 1035              		.cfi_startproc
 1036              		@ args = 0, pretend = 0, frame = 0
 1037              		@ frame_needed = 0, uses_anonymous_args = 0
 1038              	.LVL89:
1116:Drivers/STM32F4xx_HAL_Driver/Src/stm32f4xx_hal_i2s.c **** 
 1039              		.loc 1 1116 0
 1040 0000 90F84030 		ldrb	r3, [r0, #64]	@ zero_extendqisi2
 1041 0004 DBB2     		uxtb	r3, r3
 1042 0006 012B     		cmp	r3, #1
 1043 0008 57D0     		beq	.L122
1114:Drivers/STM32F4xx_HAL_Driver/Src/stm32f4xx_hal_i2s.c ****   /* Process Locked */
 1044              		.loc 1 1114 0 discriminator 2
 1045 000a 10B5     		push	{r4, lr}
 1046              	.LCFI12:
 1047              		.cfi_def_cfa_offset 8
 1048              		.cfi_offset 4, -8
 1049              		.cfi_offset 14, -4
 1050 000c 0446     		mov	r4, r0
1116:Drivers/STM32F4xx_HAL_Driver/Src/stm32f4xx_hal_i2s.c **** 
 1051              		.loc 1 1116 0 discriminator 2
 1052 000e 0123     		movs	r3, #1
 1053 0010 80F84030 		strb	r3, [r0, #64]
1118:Drivers/STM32F4xx_HAL_Driver/Src/stm32f4xx_hal_i2s.c ****   {
 1054              		.loc 1 1118 0 discriminator 2
 1055 0014 90F84130 		ldrb	r3, [r0, #65]	@ zero_extendqisi2
 1056 0018 DBB2     		uxtb	r3, r3
 1057 001a 032B     		cmp	r3, #3
 1058 001c 17D0     		beq	.L129
ARM GAS  C:\Users\Student\AppData\Local\Temp\ccUcoAHh.s 			page 49


1126:Drivers/STM32F4xx_HAL_Driver/Src/stm32f4xx_hal_i2s.c ****   {
 1059              		.loc 1 1126 0
 1060 001e 90F84130 		ldrb	r3, [r0, #65]	@ zero_extendqisi2
 1061 0022 DBB2     		uxtb	r3, r3
 1062 0024 042B     		cmp	r3, #4
 1063 0026 1BD0     		beq	.L130
1135:Drivers/STM32F4xx_HAL_Driver/Src/stm32f4xx_hal_i2s.c ****   {
 1064              		.loc 1 1135 0
 1065 0028 90F84130 		ldrb	r3, [r0, #65]	@ zero_extendqisi2
 1066 002c DBB2     		uxtb	r3, r3
 1067 002e 052B     		cmp	r3, #5
 1068 0030 1FD0     		beq	.L131
 1069              	.LVL90:
 1070              	.L118:
1151:Drivers/STM32F4xx_HAL_Driver/Src/stm32f4xx_hal_i2s.c **** 
 1071              		.loc 1 1151 0
 1072 0032 2268     		ldr	r2, [r4]
 1073 0034 D369     		ldr	r3, [r2, #28]
 1074 0036 23F48063 		bic	r3, r3, #1024
 1075 003a 1B04     		lsls	r3, r3, #16
 1076 003c 1B0C     		lsrs	r3, r3, #16
 1077 003e D361     		str	r3, [r2, #28]
1153:Drivers/STM32F4xx_HAL_Driver/Src/stm32f4xx_hal_i2s.c **** 
 1078              		.loc 1 1153 0
 1079 0040 0123     		movs	r3, #1
 1080 0042 84F84130 		strb	r3, [r4, #65]
1156:Drivers/STM32F4xx_HAL_Driver/Src/stm32f4xx_hal_i2s.c **** 
 1081              		.loc 1 1156 0
 1082 0046 0020     		movs	r0, #0
 1083 0048 84F84000 		strb	r0, [r4, #64]
1158:Drivers/STM32F4xx_HAL_Driver/Src/stm32f4xx_hal_i2s.c **** }
 1084              		.loc 1 1158 0
 1085 004c 10BD     		pop	{r4, pc}
 1086              	.LVL91:
 1087              	.L129:
1121:Drivers/STM32F4xx_HAL_Driver/Src/stm32f4xx_hal_i2s.c **** 
 1088              		.loc 1 1121 0
 1089 004e 0268     		ldr	r2, [r0]
 1090 0050 5368     		ldr	r3, [r2, #4]
 1091 0052 23F00203 		bic	r3, r3, #2
 1092 0056 5360     		str	r3, [r2, #4]
1124:Drivers/STM32F4xx_HAL_Driver/Src/stm32f4xx_hal_i2s.c ****   }
 1093              		.loc 1 1124 0
 1094 0058 806B     		ldr	r0, [r0, #56]
 1095              	.LVL92:
 1096 005a FFF7FEFF 		bl	HAL_DMA_Abort
 1097              	.LVL93:
 1098 005e E8E7     		b	.L118
 1099              	.LVL94:
 1100              	.L130:
1129:Drivers/STM32F4xx_HAL_Driver/Src/stm32f4xx_hal_i2s.c **** 
 1101              		.loc 1 1129 0
 1102 0060 0268     		ldr	r2, [r0]
 1103 0062 5368     		ldr	r3, [r2, #4]
 1104 0064 23F00103 		bic	r3, r3, #1
 1105 0068 5360     		str	r3, [r2, #4]
1132:Drivers/STM32F4xx_HAL_Driver/Src/stm32f4xx_hal_i2s.c ****   }
ARM GAS  C:\Users\Student\AppData\Local\Temp\ccUcoAHh.s 			page 50


 1106              		.loc 1 1132 0
 1107 006a C06B     		ldr	r0, [r0, #60]
 1108              	.LVL95:
 1109 006c FFF7FEFF 		bl	HAL_DMA_Abort
 1110              	.LVL96:
 1111 0070 DFE7     		b	.L118
 1112              	.LVL97:
 1113              	.L131:
1138:Drivers/STM32F4xx_HAL_Driver/Src/stm32f4xx_hal_i2s.c ****     CLEAR_BIT(I2SxEXT(hi2s->Instance)->CR2,(SPI_CR2_RXDMAEN | SPI_CR2_TXDMAEN));
 1114              		.loc 1 1138 0
 1115 0072 0268     		ldr	r2, [r0]
 1116 0074 5368     		ldr	r3, [r2, #4]
 1117 0076 23F00303 		bic	r3, r3, #3
 1118 007a 5360     		str	r3, [r2, #4]
1139:Drivers/STM32F4xx_HAL_Driver/Src/stm32f4xx_hal_i2s.c **** 
 1119              		.loc 1 1139 0
 1120 007c 0268     		ldr	r2, [r0]
 1121 007e 104B     		ldr	r3, .L134
 1122 0080 9A42     		cmp	r2, r3
 1123 0082 16D0     		beq	.L132
 1124 0084 4FF04022 		mov	r2, #1073758208
 1125              	.L120:
1139:Drivers/STM32F4xx_HAL_Driver/Src/stm32f4xx_hal_i2s.c **** 
 1126              		.loc 1 1139 0 is_stmt 0 discriminator 4
 1127 0088 5368     		ldr	r3, [r2, #4]
 1128 008a 23F00303 		bic	r3, r3, #3
 1129 008e 5360     		str	r3, [r2, #4]
1142:Drivers/STM32F4xx_HAL_Driver/Src/stm32f4xx_hal_i2s.c ****     HAL_DMA_Abort(hi2s->hdmarx);
 1130              		.loc 1 1142 0 is_stmt 1 discriminator 4
 1131 0090 A06B     		ldr	r0, [r4, #56]
 1132              	.LVL98:
 1133 0092 FFF7FEFF 		bl	HAL_DMA_Abort
 1134              	.LVL99:
1143:Drivers/STM32F4xx_HAL_Driver/Src/stm32f4xx_hal_i2s.c **** 
 1135              		.loc 1 1143 0 discriminator 4
 1136 0096 E06B     		ldr	r0, [r4, #60]
 1137 0098 FFF7FEFF 		bl	HAL_DMA_Abort
 1138              	.LVL100:
1146:Drivers/STM32F4xx_HAL_Driver/Src/stm32f4xx_hal_i2s.c ****   }
 1139              		.loc 1 1146 0 discriminator 4
 1140 009c 2268     		ldr	r2, [r4]
 1141 009e 084B     		ldr	r3, .L134
 1142 00a0 9A42     		cmp	r2, r3
 1143 00a2 08D0     		beq	.L133
1146:Drivers/STM32F4xx_HAL_Driver/Src/stm32f4xx_hal_i2s.c ****   }
 1144              		.loc 1 1146 0 is_stmt 0
 1145 00a4 4FF04022 		mov	r2, #1073758208
 1146              	.L121:
1146:Drivers/STM32F4xx_HAL_Driver/Src/stm32f4xx_hal_i2s.c ****   }
 1147              		.loc 1 1146 0 discriminator 4
 1148 00a8 D369     		ldr	r3, [r2, #28]
 1149 00aa 23F48063 		bic	r3, r3, #1024
 1150 00ae D361     		str	r3, [r2, #28]
 1151 00b0 BFE7     		b	.L118
 1152              	.LVL101:
 1153              	.L132:
1139:Drivers/STM32F4xx_HAL_Driver/Src/stm32f4xx_hal_i2s.c **** 
ARM GAS  C:\Users\Student\AppData\Local\Temp\ccUcoAHh.s 			page 51


 1154              		.loc 1 1139 0 is_stmt 1
 1155 00b2 044A     		ldr	r2, .L134+4
 1156 00b4 E8E7     		b	.L120
 1157              	.LVL102:
 1158              	.L133:
1146:Drivers/STM32F4xx_HAL_Driver/Src/stm32f4xx_hal_i2s.c ****   }
 1159              		.loc 1 1146 0
 1160 00b6 034A     		ldr	r2, .L134+4
 1161 00b8 F6E7     		b	.L121
 1162              	.LVL103:
 1163              	.L122:
 1164              	.LCFI13:
 1165              		.cfi_def_cfa_offset 0
 1166              		.cfi_restore 4
 1167              		.cfi_restore 14
1116:Drivers/STM32F4xx_HAL_Driver/Src/stm32f4xx_hal_i2s.c **** 
 1168              		.loc 1 1116 0
 1169 00ba 0220     		movs	r0, #2
 1170              	.LVL104:
 1171 00bc 7047     		bx	lr
 1172              	.L135:
 1173 00be 00BF     		.align	2
 1174              	.L134:
 1175 00c0 00380040 		.word	1073756160
 1176 00c4 00340040 		.word	1073755136
 1177              		.cfi_endproc
 1178              	.LFE136:
 1180              		.section	.text.HAL_I2S_IRQHandler,"ax",%progbits
 1181              		.align	1
 1182              		.global	HAL_I2S_IRQHandler
 1183              		.syntax unified
 1184              		.thumb
 1185              		.thumb_func
 1186              		.fpu fpv4-sp-d16
 1188              	HAL_I2S_IRQHandler:
 1189              	.LFB137:
1168:Drivers/STM32F4xx_HAL_Driver/Src/stm32f4xx_hal_i2s.c ****   /* Call the IrqHandler ISR set during HAL_I2S_INIT */
 1190              		.loc 1 1168 0
 1191              		.cfi_startproc
 1192              		@ args = 0, pretend = 0, frame = 0
 1193              		@ frame_needed = 0, uses_anonymous_args = 0
 1194              	.LVL105:
 1195 0000 08B5     		push	{r3, lr}
 1196              	.LCFI14:
 1197              		.cfi_def_cfa_offset 8
 1198              		.cfi_offset 3, -8
 1199              		.cfi_offset 14, -4
1170:Drivers/STM32F4xx_HAL_Driver/Src/stm32f4xx_hal_i2s.c **** }
 1200              		.loc 1 1170 0
 1201 0002 436B     		ldr	r3, [r0, #52]
 1202 0004 9847     		blx	r3
 1203              	.LVL106:
 1204 0006 08BD     		pop	{r3, pc}
 1205              		.cfi_endproc
 1206              	.LFE137:
 1208              		.section	.text.HAL_I2S_TxHalfCpltCallback,"ax",%progbits
 1209              		.align	1
ARM GAS  C:\Users\Student\AppData\Local\Temp\ccUcoAHh.s 			page 52


 1210              		.weak	HAL_I2S_TxHalfCpltCallback
 1211              		.syntax unified
 1212              		.thumb
 1213              		.thumb_func
 1214              		.fpu fpv4-sp-d16
 1216              	HAL_I2S_TxHalfCpltCallback:
 1217              	.LFB138:
1180:Drivers/STM32F4xx_HAL_Driver/Src/stm32f4xx_hal_i2s.c ****   /* Prevent unused argument(s) compilation warning */
 1218              		.loc 1 1180 0
 1219              		.cfi_startproc
 1220              		@ args = 0, pretend = 0, frame = 0
 1221              		@ frame_needed = 0, uses_anonymous_args = 0
 1222              		@ link register save eliminated.
 1223              	.LVL107:
 1224 0000 7047     		bx	lr
 1225              		.cfi_endproc
 1226              	.LFE138:
 1228              		.section	.text.I2S_DMATxHalfCplt,"ax",%progbits
 1229              		.align	1
 1230              		.syntax unified
 1231              		.thumb
 1232              		.thumb_func
 1233              		.fpu fpv4-sp-d16
 1235              	I2S_DMATxHalfCplt:
 1236              	.LFB146:
1326:Drivers/STM32F4xx_HAL_Driver/Src/stm32f4xx_hal_i2s.c ****   I2S_HandleTypeDef* hi2s = (I2S_HandleTypeDef*)((DMA_HandleTypeDef*)hdma)->Parent;
 1237              		.loc 1 1326 0
 1238              		.cfi_startproc
 1239              		@ args = 0, pretend = 0, frame = 0
 1240              		@ frame_needed = 0, uses_anonymous_args = 0
 1241              	.LVL108:
1326:Drivers/STM32F4xx_HAL_Driver/Src/stm32f4xx_hal_i2s.c ****   I2S_HandleTypeDef* hi2s = (I2S_HandleTypeDef*)((DMA_HandleTypeDef*)hdma)->Parent;
 1242              		.loc 1 1326 0
 1243 0000 08B5     		push	{r3, lr}
 1244              	.LCFI15:
 1245              		.cfi_def_cfa_offset 8
 1246              		.cfi_offset 3, -8
 1247              		.cfi_offset 14, -4
 1248              	.LVL109:
1329:Drivers/STM32F4xx_HAL_Driver/Src/stm32f4xx_hal_i2s.c **** }
 1249              		.loc 1 1329 0
 1250 0002 806B     		ldr	r0, [r0, #56]
 1251              	.LVL110:
 1252 0004 FFF7FEFF 		bl	HAL_I2S_TxHalfCpltCallback
 1253              	.LVL111:
 1254 0008 08BD     		pop	{r3, pc}
 1255              		.cfi_endproc
 1256              	.LFE146:
 1258              		.section	.text.HAL_I2S_TxCpltCallback,"ax",%progbits
 1259              		.align	1
 1260              		.weak	HAL_I2S_TxCpltCallback
 1261              		.syntax unified
 1262              		.thumb
 1263              		.thumb_func
 1264              		.fpu fpv4-sp-d16
 1266              	HAL_I2S_TxCpltCallback:
 1267              	.LFB139:
ARM GAS  C:\Users\Student\AppData\Local\Temp\ccUcoAHh.s 			page 53


1195:Drivers/STM32F4xx_HAL_Driver/Src/stm32f4xx_hal_i2s.c ****   /* Prevent unused argument(s) compilation warning */
 1268              		.loc 1 1195 0
 1269              		.cfi_startproc
 1270              		@ args = 0, pretend = 0, frame = 0
 1271              		@ frame_needed = 0, uses_anonymous_args = 0
 1272              		@ link register save eliminated.
 1273              	.LVL112:
 1274 0000 7047     		bx	lr
 1275              		.cfi_endproc
 1276              	.LFE139:
 1278              		.section	.text.I2S_Transmit_IT,"ax",%progbits
 1279              		.align	1
 1280              		.syntax unified
 1281              		.thumb
 1282              		.thumb_func
 1283              		.fpu fpv4-sp-d16
 1285              	I2S_Transmit_IT:
 1286              	.LFB150:
1393:Drivers/STM32F4xx_HAL_Driver/Src/stm32f4xx_hal_i2s.c ****   /* Transmit data */
 1287              		.loc 1 1393 0
 1288              		.cfi_startproc
 1289              		@ args = 0, pretend = 0, frame = 0
 1290              		@ frame_needed = 0, uses_anonymous_args = 0
 1291              	.LVL113:
1393:Drivers/STM32F4xx_HAL_Driver/Src/stm32f4xx_hal_i2s.c ****   /* Transmit data */
 1292              		.loc 1 1393 0
 1293 0000 08B5     		push	{r3, lr}
 1294              	.LCFI16:
 1295              		.cfi_def_cfa_offset 8
 1296              		.cfi_offset 3, -8
 1297              		.cfi_offset 14, -4
1395:Drivers/STM32F4xx_HAL_Driver/Src/stm32f4xx_hal_i2s.c ****   hi2s->TxXferCount--;
 1298              		.loc 1 1395 0
 1299 0002 0268     		ldr	r2, [r0]
 1300 0004 436A     		ldr	r3, [r0, #36]
 1301 0006 991C     		adds	r1, r3, #2
 1302 0008 4162     		str	r1, [r0, #36]
 1303 000a 1B88     		ldrh	r3, [r3]
 1304 000c D360     		str	r3, [r2, #12]
1396:Drivers/STM32F4xx_HAL_Driver/Src/stm32f4xx_hal_i2s.c **** 
 1305              		.loc 1 1396 0
 1306 000e 438D     		ldrh	r3, [r0, #42]
 1307 0010 9BB2     		uxth	r3, r3
 1308 0012 013B     		subs	r3, r3, #1
 1309 0014 9BB2     		uxth	r3, r3
 1310 0016 4385     		strh	r3, [r0, #42]	@ movhi
1398:Drivers/STM32F4xx_HAL_Driver/Src/stm32f4xx_hal_i2s.c ****   {
 1311              		.loc 1 1398 0
 1312 0018 438D     		ldrh	r3, [r0, #42]
 1313 001a 9BB2     		uxth	r3, r3
 1314 001c 03B1     		cbz	r3, .L145
 1315              	.LVL114:
 1316              	.L142:
 1317 001e 08BD     		pop	{r3, pc}
 1318              	.LVL115:
 1319              	.L145:
1401:Drivers/STM32F4xx_HAL_Driver/Src/stm32f4xx_hal_i2s.c **** 
ARM GAS  C:\Users\Student\AppData\Local\Temp\ccUcoAHh.s 			page 54


 1320              		.loc 1 1401 0
 1321 0020 0268     		ldr	r2, [r0]
 1322 0022 5368     		ldr	r3, [r2, #4]
 1323 0024 23F0A003 		bic	r3, r3, #160
 1324 0028 1B04     		lsls	r3, r3, #16
 1325 002a 1B0C     		lsrs	r3, r3, #16
 1326 002c 5360     		str	r3, [r2, #4]
1403:Drivers/STM32F4xx_HAL_Driver/Src/stm32f4xx_hal_i2s.c ****     HAL_I2S_TxCpltCallback(hi2s);
 1327              		.loc 1 1403 0
 1328 002e 0123     		movs	r3, #1
 1329 0030 80F84130 		strb	r3, [r0, #65]
1404:Drivers/STM32F4xx_HAL_Driver/Src/stm32f4xx_hal_i2s.c ****   }
 1330              		.loc 1 1404 0
 1331 0034 FFF7FEFF 		bl	HAL_I2S_TxCpltCallback
 1332              	.LVL116:
1406:Drivers/STM32F4xx_HAL_Driver/Src/stm32f4xx_hal_i2s.c **** 
 1333              		.loc 1 1406 0
 1334 0038 F1E7     		b	.L142
 1335              		.cfi_endproc
 1336              	.LFE150:
 1338              		.section	.text.I2S_DMATxCplt,"ax",%progbits
 1339              		.align	1
 1340              		.syntax unified
 1341              		.thumb
 1342              		.thumb_func
 1343              		.fpu fpv4-sp-d16
 1345              	I2S_DMATxCplt:
 1346              	.LFB145:
1306:Drivers/STM32F4xx_HAL_Driver/Src/stm32f4xx_hal_i2s.c ****   I2S_HandleTypeDef* hi2s = ( I2S_HandleTypeDef* )((DMA_HandleTypeDef* )hdma)->Parent;
 1347              		.loc 1 1306 0
 1348              		.cfi_startproc
 1349              		@ args = 0, pretend = 0, frame = 0
 1350              		@ frame_needed = 0, uses_anonymous_args = 0
 1351              	.LVL117:
 1352 0000 08B5     		push	{r3, lr}
 1353              	.LCFI17:
 1354              		.cfi_def_cfa_offset 8
 1355              		.cfi_offset 3, -8
 1356              		.cfi_offset 14, -4
1307:Drivers/STM32F4xx_HAL_Driver/Src/stm32f4xx_hal_i2s.c **** 
 1357              		.loc 1 1307 0
 1358 0002 836B     		ldr	r3, [r0, #56]
 1359              	.LVL118:
1309:Drivers/STM32F4xx_HAL_Driver/Src/stm32f4xx_hal_i2s.c ****   {
 1360              		.loc 1 1309 0
 1361 0004 0268     		ldr	r2, [r0]
 1362 0006 1268     		ldr	r2, [r2]
 1363 0008 12F4807F 		tst	r2, #256
 1364 000c 09D1     		bne	.L147
1312:Drivers/STM32F4xx_HAL_Driver/Src/stm32f4xx_hal_i2s.c **** 
 1365              		.loc 1 1312 0
 1366 000e 1968     		ldr	r1, [r3]
 1367 0010 4A68     		ldr	r2, [r1, #4]
 1368 0012 22F00202 		bic	r2, r2, #2
 1369 0016 4A60     		str	r2, [r1, #4]
1314:Drivers/STM32F4xx_HAL_Driver/Src/stm32f4xx_hal_i2s.c ****     hi2s->State       = HAL_I2S_STATE_READY;
 1370              		.loc 1 1314 0
ARM GAS  C:\Users\Student\AppData\Local\Temp\ccUcoAHh.s 			page 55


 1371 0018 0022     		movs	r2, #0
 1372 001a 5A85     		strh	r2, [r3, #42]	@ movhi
1315:Drivers/STM32F4xx_HAL_Driver/Src/stm32f4xx_hal_i2s.c ****   }
 1373              		.loc 1 1315 0
 1374 001c 0122     		movs	r2, #1
 1375 001e 83F84120 		strb	r2, [r3, #65]
 1376              	.L147:
1317:Drivers/STM32F4xx_HAL_Driver/Src/stm32f4xx_hal_i2s.c **** }
 1377              		.loc 1 1317 0
 1378 0022 1846     		mov	r0, r3
 1379              	.LVL119:
 1380 0024 FFF7FEFF 		bl	HAL_I2S_TxCpltCallback
 1381              	.LVL120:
 1382 0028 08BD     		pop	{r3, pc}
 1383              		.cfi_endproc
 1384              	.LFE145:
 1386              		.section	.text.HAL_I2S_RxHalfCpltCallback,"ax",%progbits
 1387              		.align	1
 1388              		.weak	HAL_I2S_RxHalfCpltCallback
 1389              		.syntax unified
 1390              		.thumb
 1391              		.thumb_func
 1392              		.fpu fpv4-sp-d16
 1394              	HAL_I2S_RxHalfCpltCallback:
 1395              	.LFB140:
1210:Drivers/STM32F4xx_HAL_Driver/Src/stm32f4xx_hal_i2s.c ****   /* Prevent unused argument(s) compilation warning */
 1396              		.loc 1 1210 0
 1397              		.cfi_startproc
 1398              		@ args = 0, pretend = 0, frame = 0
 1399              		@ frame_needed = 0, uses_anonymous_args = 0
 1400              		@ link register save eliminated.
 1401              	.LVL121:
 1402 0000 7047     		bx	lr
 1403              		.cfi_endproc
 1404              	.LFE140:
 1406              		.section	.text.I2S_DMARxHalfCplt,"ax",%progbits
 1407              		.align	1
 1408              		.syntax unified
 1409              		.thumb
 1410              		.thumb_func
 1411              		.fpu fpv4-sp-d16
 1413              	I2S_DMARxHalfCplt:
 1414              	.LFB148:
1359:Drivers/STM32F4xx_HAL_Driver/Src/stm32f4xx_hal_i2s.c ****   I2S_HandleTypeDef* hi2s = (I2S_HandleTypeDef*)((DMA_HandleTypeDef*)hdma)->Parent;
 1415              		.loc 1 1359 0
 1416              		.cfi_startproc
 1417              		@ args = 0, pretend = 0, frame = 0
 1418              		@ frame_needed = 0, uses_anonymous_args = 0
 1419              	.LVL122:
1359:Drivers/STM32F4xx_HAL_Driver/Src/stm32f4xx_hal_i2s.c ****   I2S_HandleTypeDef* hi2s = (I2S_HandleTypeDef*)((DMA_HandleTypeDef*)hdma)->Parent;
 1420              		.loc 1 1359 0
 1421 0000 08B5     		push	{r3, lr}
 1422              	.LCFI18:
 1423              		.cfi_def_cfa_offset 8
 1424              		.cfi_offset 3, -8
 1425              		.cfi_offset 14, -4
 1426              	.LVL123:
ARM GAS  C:\Users\Student\AppData\Local\Temp\ccUcoAHh.s 			page 56


1362:Drivers/STM32F4xx_HAL_Driver/Src/stm32f4xx_hal_i2s.c **** }
 1427              		.loc 1 1362 0
 1428 0002 806B     		ldr	r0, [r0, #56]
 1429              	.LVL124:
 1430 0004 FFF7FEFF 		bl	HAL_I2S_RxHalfCpltCallback
 1431              	.LVL125:
 1432 0008 08BD     		pop	{r3, pc}
 1433              		.cfi_endproc
 1434              	.LFE148:
 1436              		.section	.text.HAL_I2S_RxCpltCallback,"ax",%progbits
 1437              		.align	1
 1438              		.weak	HAL_I2S_RxCpltCallback
 1439              		.syntax unified
 1440              		.thumb
 1441              		.thumb_func
 1442              		.fpu fpv4-sp-d16
 1444              	HAL_I2S_RxCpltCallback:
 1445              	.LFB141:
1225:Drivers/STM32F4xx_HAL_Driver/Src/stm32f4xx_hal_i2s.c ****   /* Prevent unused argument(s) compilation warning */
 1446              		.loc 1 1225 0
 1447              		.cfi_startproc
 1448              		@ args = 0, pretend = 0, frame = 0
 1449              		@ frame_needed = 0, uses_anonymous_args = 0
 1450              		@ link register save eliminated.
 1451              	.LVL126:
 1452 0000 7047     		bx	lr
 1453              		.cfi_endproc
 1454              	.LFE141:
 1456              		.section	.text.I2S_Receive_IT,"ax",%progbits
 1457              		.align	1
 1458              		.syntax unified
 1459              		.thumb
 1460              		.thumb_func
 1461              		.fpu fpv4-sp-d16
 1463              	I2S_Receive_IT:
 1464              	.LFB151:
1415:Drivers/STM32F4xx_HAL_Driver/Src/stm32f4xx_hal_i2s.c ****   /* Receive data */
 1465              		.loc 1 1415 0
 1466              		.cfi_startproc
 1467              		@ args = 0, pretend = 0, frame = 0
 1468              		@ frame_needed = 0, uses_anonymous_args = 0
 1469              	.LVL127:
1415:Drivers/STM32F4xx_HAL_Driver/Src/stm32f4xx_hal_i2s.c ****   /* Receive data */
 1470              		.loc 1 1415 0
 1471 0000 08B5     		push	{r3, lr}
 1472              	.LCFI19:
 1473              		.cfi_def_cfa_offset 8
 1474              		.cfi_offset 3, -8
 1475              		.cfi_offset 14, -4
1417:Drivers/STM32F4xx_HAL_Driver/Src/stm32f4xx_hal_i2s.c ****   hi2s->RxXferCount--;
 1476              		.loc 1 1417 0
 1477 0002 C36A     		ldr	r3, [r0, #44]
 1478 0004 9A1C     		adds	r2, r3, #2
 1479 0006 C262     		str	r2, [r0, #44]
 1480 0008 0268     		ldr	r2, [r0]
 1481 000a D268     		ldr	r2, [r2, #12]
 1482 000c 1A80     		strh	r2, [r3]	@ movhi
ARM GAS  C:\Users\Student\AppData\Local\Temp\ccUcoAHh.s 			page 57


1418:Drivers/STM32F4xx_HAL_Driver/Src/stm32f4xx_hal_i2s.c **** 
 1483              		.loc 1 1418 0
 1484 000e 438E     		ldrh	r3, [r0, #50]
 1485 0010 9BB2     		uxth	r3, r3
 1486 0012 013B     		subs	r3, r3, #1
 1487 0014 9BB2     		uxth	r3, r3
 1488 0016 4386     		strh	r3, [r0, #50]	@ movhi
1420:Drivers/STM32F4xx_HAL_Driver/Src/stm32f4xx_hal_i2s.c ****   {
 1489              		.loc 1 1420 0
 1490 0018 438E     		ldrh	r3, [r0, #50]
 1491 001a 9BB2     		uxth	r3, r3
 1492 001c 03B1     		cbz	r3, .L156
 1493              	.LVL128:
 1494              	.L153:
 1495 001e 08BD     		pop	{r3, pc}
 1496              	.LVL129:
 1497              	.L156:
1423:Drivers/STM32F4xx_HAL_Driver/Src/stm32f4xx_hal_i2s.c **** 
 1498              		.loc 1 1423 0
 1499 0020 0268     		ldr	r2, [r0]
 1500 0022 5368     		ldr	r3, [r2, #4]
 1501 0024 23F06003 		bic	r3, r3, #96
 1502 0028 1B04     		lsls	r3, r3, #16
 1503 002a 1B0C     		lsrs	r3, r3, #16
 1504 002c 5360     		str	r3, [r2, #4]
1425:Drivers/STM32F4xx_HAL_Driver/Src/stm32f4xx_hal_i2s.c ****     HAL_I2S_RxCpltCallback(hi2s);
 1505              		.loc 1 1425 0
 1506 002e 0123     		movs	r3, #1
 1507 0030 80F84130 		strb	r3, [r0, #65]
1426:Drivers/STM32F4xx_HAL_Driver/Src/stm32f4xx_hal_i2s.c ****   }
 1508              		.loc 1 1426 0
 1509 0034 FFF7FEFF 		bl	HAL_I2S_RxCpltCallback
 1510              	.LVL130:
1428:Drivers/STM32F4xx_HAL_Driver/Src/stm32f4xx_hal_i2s.c **** 
 1511              		.loc 1 1428 0
 1512 0038 F1E7     		b	.L153
 1513              		.cfi_endproc
 1514              	.LFE151:
 1516              		.section	.text.I2S_DMARxCplt,"ax",%progbits
 1517              		.align	1
 1518              		.syntax unified
 1519              		.thumb
 1520              		.thumb_func
 1521              		.fpu fpv4-sp-d16
 1523              	I2S_DMARxCplt:
 1524              	.LFB147:
1339:Drivers/STM32F4xx_HAL_Driver/Src/stm32f4xx_hal_i2s.c ****   I2S_HandleTypeDef* hi2s = ( I2S_HandleTypeDef* )((DMA_HandleTypeDef* )hdma)->Parent;
 1525              		.loc 1 1339 0
 1526              		.cfi_startproc
 1527              		@ args = 0, pretend = 0, frame = 0
 1528              		@ frame_needed = 0, uses_anonymous_args = 0
 1529              	.LVL131:
 1530 0000 08B5     		push	{r3, lr}
 1531              	.LCFI20:
 1532              		.cfi_def_cfa_offset 8
 1533              		.cfi_offset 3, -8
 1534              		.cfi_offset 14, -4
ARM GAS  C:\Users\Student\AppData\Local\Temp\ccUcoAHh.s 			page 58


1340:Drivers/STM32F4xx_HAL_Driver/Src/stm32f4xx_hal_i2s.c **** 
 1535              		.loc 1 1340 0
 1536 0002 836B     		ldr	r3, [r0, #56]
 1537              	.LVL132:
1342:Drivers/STM32F4xx_HAL_Driver/Src/stm32f4xx_hal_i2s.c ****   {
 1538              		.loc 1 1342 0
 1539 0004 0268     		ldr	r2, [r0]
 1540 0006 1268     		ldr	r2, [r2]
 1541 0008 12F4807F 		tst	r2, #256
 1542 000c 09D1     		bne	.L158
1345:Drivers/STM32F4xx_HAL_Driver/Src/stm32f4xx_hal_i2s.c ****     hi2s->RxXferCount = 0U;
 1543              		.loc 1 1345 0
 1544 000e 1968     		ldr	r1, [r3]
 1545 0010 4A68     		ldr	r2, [r1, #4]
 1546 0012 22F00102 		bic	r2, r2, #1
 1547 0016 4A60     		str	r2, [r1, #4]
1346:Drivers/STM32F4xx_HAL_Driver/Src/stm32f4xx_hal_i2s.c ****     hi2s->State       = HAL_I2S_STATE_READY;
 1548              		.loc 1 1346 0
 1549 0018 0022     		movs	r2, #0
 1550 001a 5A86     		strh	r2, [r3, #50]	@ movhi
1347:Drivers/STM32F4xx_HAL_Driver/Src/stm32f4xx_hal_i2s.c ****   }
 1551              		.loc 1 1347 0
 1552 001c 0122     		movs	r2, #1
 1553 001e 83F84120 		strb	r2, [r3, #65]
 1554              	.L158:
1349:Drivers/STM32F4xx_HAL_Driver/Src/stm32f4xx_hal_i2s.c **** }
 1555              		.loc 1 1349 0
 1556 0022 1846     		mov	r0, r3
 1557              	.LVL133:
 1558 0024 FFF7FEFF 		bl	HAL_I2S_RxCpltCallback
 1559              	.LVL134:
 1560 0028 08BD     		pop	{r3, pc}
 1561              		.cfi_endproc
 1562              	.LFE147:
 1564              		.section	.text.HAL_I2S_ErrorCallback,"ax",%progbits
 1565              		.align	1
 1566              		.weak	HAL_I2S_ErrorCallback
 1567              		.syntax unified
 1568              		.thumb
 1569              		.thumb_func
 1570              		.fpu fpv4-sp-d16
 1572              	HAL_I2S_ErrorCallback:
 1573              	.LFB142:
1240:Drivers/STM32F4xx_HAL_Driver/Src/stm32f4xx_hal_i2s.c ****   /* Prevent unused argument(s) compilation warning */
 1574              		.loc 1 1240 0
 1575              		.cfi_startproc
 1576              		@ args = 0, pretend = 0, frame = 0
 1577              		@ frame_needed = 0, uses_anonymous_args = 0
 1578              		@ link register save eliminated.
 1579              	.LVL135:
 1580 0000 7047     		bx	lr
 1581              		.cfi_endproc
 1582              	.LFE142:
 1584              		.section	.text.HAL_I2S_Init,"ax",%progbits
 1585              		.align	1
 1586              		.global	HAL_I2S_Init
 1587              		.syntax unified
ARM GAS  C:\Users\Student\AppData\Local\Temp\ccUcoAHh.s 			page 59


 1588              		.thumb
 1589              		.thumb_func
 1590              		.fpu fpv4-sp-d16
 1592              	HAL_I2S_Init:
 1593              	.LFB124:
 218:Drivers/STM32F4xx_HAL_Driver/Src/stm32f4xx_hal_i2s.c ****   uint32_t tmpreg = 0U, i2sdiv = 2U, i2sodd = 0U, packetlength = 16U;
 1594              		.loc 1 218 0
 1595              		.cfi_startproc
 1596              		@ args = 0, pretend = 0, frame = 0
 1597              		@ frame_needed = 0, uses_anonymous_args = 0
 1598              	.LVL136:
 223:Drivers/STM32F4xx_HAL_Driver/Src/stm32f4xx_hal_i2s.c ****   {
 1599              		.loc 1 223 0
 1600 0000 0028     		cmp	r0, #0
 1601 0002 00F0BA80 		beq	.L175
 218:Drivers/STM32F4xx_HAL_Driver/Src/stm32f4xx_hal_i2s.c ****   uint32_t tmpreg = 0U, i2sdiv = 2U, i2sodd = 0U, packetlength = 16U;
 1602              		.loc 1 218 0
 1603 0006 70B5     		push	{r4, r5, r6, lr}
 1604              	.LCFI21:
 1605              		.cfi_def_cfa_offset 16
 1606              		.cfi_offset 4, -16
 1607              		.cfi_offset 5, -12
 1608              		.cfi_offset 6, -8
 1609              		.cfi_offset 14, -4
 1610 0008 0446     		mov	r4, r0
 238:Drivers/STM32F4xx_HAL_Driver/Src/stm32f4xx_hal_i2s.c **** 
 1611              		.loc 1 238 0
 1612 000a 0225     		movs	r5, #2
 1613 000c 80F84150 		strb	r5, [r0, #65]
 241:Drivers/STM32F4xx_HAL_Driver/Src/stm32f4xx_hal_i2s.c **** 
 1614              		.loc 1 241 0
 1615 0010 5B4B     		ldr	r3, .L193
 1616 0012 4363     		str	r3, [r0, #52]
 244:Drivers/STM32F4xx_HAL_Driver/Src/stm32f4xx_hal_i2s.c **** 
 1617              		.loc 1 244 0
 1618 0014 FFF7FEFF 		bl	HAL_I2S_MspInit
 1619              	.LVL137:
 248:Drivers/STM32F4xx_HAL_Driver/Src/stm32f4xx_hal_i2s.c ****                                      SPI_I2SCFGR_I2SSTD | SPI_I2SCFGR_PCMSYNC | SPI_I2SCFGR_I2SCFG 
 1620              		.loc 1 248 0
 1621 0018 2268     		ldr	r2, [r4]
 1622 001a D369     		ldr	r3, [r2, #28]
 1623 001c 23F47B63 		bic	r3, r3, #4016
 1624 0020 23F00F03 		bic	r3, r3, #15
 1625 0024 D361     		str	r3, [r2, #28]
 251:Drivers/STM32F4xx_HAL_Driver/Src/stm32f4xx_hal_i2s.c **** 
 1626              		.loc 1 251 0
 1627 0026 2368     		ldr	r3, [r4]
 1628 0028 1D62     		str	r5, [r3, #32]
 254:Drivers/STM32F4xx_HAL_Driver/Src/stm32f4xx_hal_i2s.c **** 
 1629              		.loc 1 254 0
 1630 002a 2368     		ldr	r3, [r4]
 1631 002c DD69     		ldr	r5, [r3, #28]
 1632              	.LVL138:
 258:Drivers/STM32F4xx_HAL_Driver/Src/stm32f4xx_hal_i2s.c ****   {
 1633              		.loc 1 258 0
 1634 002e 6369     		ldr	r3, [r4, #20]
 1635 0030 022B     		cmp	r3, #2
ARM GAS  C:\Users\Student\AppData\Local\Temp\ccUcoAHh.s 			page 60


 1636 0032 5BD0     		beq	.L176
 262:Drivers/STM32F4xx_HAL_Driver/Src/stm32f4xx_hal_i2s.c ****     {
 1637              		.loc 1 262 0
 1638 0034 E368     		ldr	r3, [r4, #12]
 1639 0036 002B     		cmp	r3, #0
 1640 0038 3ED0     		beq	.L177
 265:Drivers/STM32F4xx_HAL_Driver/Src/stm32f4xx_hal_i2s.c ****     }
 1641              		.loc 1 265 0
 1642 003a 2026     		movs	r6, #32
 1643              	.L164:
 1644              	.LVL139:
 274:Drivers/STM32F4xx_HAL_Driver/Src/stm32f4xx_hal_i2s.c ****     {
 1645              		.loc 1 274 0
 1646 003c A368     		ldr	r3, [r4, #8]
 1647 003e 202B     		cmp	r3, #32
 1648 0040 00D8     		bhi	.L165
 277:Drivers/STM32F4xx_HAL_Driver/Src/stm32f4xx_hal_i2s.c ****     }
 1649              		.loc 1 277 0
 1650 0042 7600     		lsls	r6, r6, #1
 1651              	.LVL140:
 1652              	.L165:
 291:Drivers/STM32F4xx_HAL_Driver/Src/stm32f4xx_hal_i2s.c **** #endif
 1653              		.loc 1 291 0
 1654 0044 0120     		movs	r0, #1
 1655 0046 FFF7FEFF 		bl	HAL_RCCEx_GetPeriphCLKFreq
 1656              	.LVL141:
 295:Drivers/STM32F4xx_HAL_Driver/Src/stm32f4xx_hal_i2s.c ****     {
 1657              		.loc 1 295 0
 1658 004a 2369     		ldr	r3, [r4, #16]
 1659 004c B3F5007F 		cmp	r3, #512
 1660 0050 34D0     		beq	.L187
 310:Drivers/STM32F4xx_HAL_Driver/Src/stm32f4xx_hal_i2s.c ****     }
 1661              		.loc 1 310 0
 1662 0052 B0FBF6F0 		udiv	r0, r0, r6
 1663              	.LVL142:
 1664 0056 00EB8000 		add	r0, r0, r0, lsl #2
 1665 005a 4300     		lsls	r3, r0, #1
 1666 005c 6269     		ldr	r2, [r4, #20]
 1667 005e B3FBF2F3 		udiv	r3, r3, r2
 1668 0062 0533     		adds	r3, r3, #5
 1669              	.LVL143:
 1670              	.L168:
 314:Drivers/STM32F4xx_HAL_Driver/Src/stm32f4xx_hal_i2s.c **** 
 1671              		.loc 1 314 0
 1672 0064 474A     		ldr	r2, .L193+4
 1673 0066 A2FB0323 		umull	r2, r3, r2, r3
 1674              	.LVL144:
 1675 006a DB08     		lsrs	r3, r3, #3
 1676              	.LVL145:
 317:Drivers/STM32F4xx_HAL_Driver/Src/stm32f4xx_hal_i2s.c **** 
 1677              		.loc 1 317 0
 1678 006c 03F00102 		and	r2, r3, #1
 1679              	.LVL146:
 320:Drivers/STM32F4xx_HAL_Driver/Src/stm32f4xx_hal_i2s.c **** 
 1680              		.loc 1 320 0
 1681 0070 9B1A     		subs	r3, r3, r2
 1682              	.LVL147:
ARM GAS  C:\Users\Student\AppData\Local\Temp\ccUcoAHh.s 			page 61


 1683 0072 C3F34F03 		ubfx	r3, r3, #1, #16
 1684              	.LVL148:
 323:Drivers/STM32F4xx_HAL_Driver/Src/stm32f4xx_hal_i2s.c ****   }
 1685              		.loc 1 323 0
 1686 0076 1202     		lsls	r2, r2, #8
 1687              	.LVL149:
 1688              	.L163:
 327:Drivers/STM32F4xx_HAL_Driver/Src/stm32f4xx_hal_i2s.c ****   {
 1689              		.loc 1 327 0
 1690 0078 991E     		subs	r1, r3, #2
 1691 007a FD29     		cmp	r1, #253
 1692 007c 38D8     		bhi	.L188
 340:Drivers/STM32F4xx_HAL_Driver/Src/stm32f4xx_hal_i2s.c **** 
 1693              		.loc 1 340 0
 1694 007e 2168     		ldr	r1, [r4]
 1695 0080 2069     		ldr	r0, [r4, #16]
 1696 0082 0243     		orrs	r2, r2, r0
 1697              	.LVL150:
 1698 0084 1343     		orrs	r3, r3, r2
 1699              	.LVL151:
 1700 0086 0B62     		str	r3, [r1, #32]
 343:Drivers/STM32F4xx_HAL_Driver/Src/stm32f4xx_hal_i2s.c ****                        (uint16_t)(hi2s->Init.Standard | (uint16_t)(hi2s->Init.DataFormat | \
 1701              		.loc 1 343 0
 1702 0088 6268     		ldr	r2, [r4, #4]
 344:Drivers/STM32F4xx_HAL_Driver/Src/stm32f4xx_hal_i2s.c ****                        (uint16_t)hi2s->Init.CPOL))));
 1703              		.loc 1 344 0
 1704 008a A168     		ldr	r1, [r4, #8]
 1705 008c E068     		ldr	r0, [r4, #12]
 345:Drivers/STM32F4xx_HAL_Driver/Src/stm32f4xx_hal_i2s.c **** 
 1706              		.loc 1 345 0
 1707 008e 238B     		ldrh	r3, [r4, #24]
 344:Drivers/STM32F4xx_HAL_Driver/Src/stm32f4xx_hal_i2s.c ****                        (uint16_t)hi2s->Init.CPOL))));
 1708              		.loc 1 344 0
 1709 0090 0343     		orrs	r3, r3, r0
 1710 0092 9BB2     		uxth	r3, r3
 1711 0094 0B43     		orrs	r3, r3, r1
 1712 0096 9BB2     		uxth	r3, r3
 343:Drivers/STM32F4xx_HAL_Driver/Src/stm32f4xx_hal_i2s.c ****                        (uint16_t)(hi2s->Init.Standard | (uint16_t)(hi2s->Init.DataFormat | \
 1713              		.loc 1 343 0
 1714 0098 1343     		orrs	r3, r3, r2
 1715 009a 9BB2     		uxth	r3, r3
 1716 009c 43F40063 		orr	r3, r3, #2048
 1717 00a0 1D43     		orrs	r5, r5, r3
 1718              	.LVL152:
 360:Drivers/STM32F4xx_HAL_Driver/Src/stm32f4xx_hal_i2s.c **** #endif
 1719              		.loc 1 360 0
 1720 00a2 2368     		ldr	r3, [r4]
 1721 00a4 DD61     		str	r5, [r3, #28]
 368:Drivers/STM32F4xx_HAL_Driver/Src/stm32f4xx_hal_i2s.c ****   {
 1722              		.loc 1 368 0
 1723 00a6 236A     		ldr	r3, [r4, #32]
 1724 00a8 012B     		cmp	r3, #1
 1725 00aa 2AD0     		beq	.L189
 1726              	.LVL153:
 1727              	.L170:
 402:Drivers/STM32F4xx_HAL_Driver/Src/stm32f4xx_hal_i2s.c ****   hi2s->State     = HAL_I2S_STATE_READY;
 1728              		.loc 1 402 0
ARM GAS  C:\Users\Student\AppData\Local\Temp\ccUcoAHh.s 			page 62


 1729 00ac 0020     		movs	r0, #0
 1730 00ae 6064     		str	r0, [r4, #68]
 403:Drivers/STM32F4xx_HAL_Driver/Src/stm32f4xx_hal_i2s.c **** 
 1731              		.loc 1 403 0
 1732 00b0 0123     		movs	r3, #1
 1733 00b2 84F84130 		strb	r3, [r4, #65]
 405:Drivers/STM32F4xx_HAL_Driver/Src/stm32f4xx_hal_i2s.c **** }
 1734              		.loc 1 405 0
 1735 00b6 70BD     		pop	{r4, r5, r6, pc}
 1736              	.LVL154:
 1737              	.L177:
 270:Drivers/STM32F4xx_HAL_Driver/Src/stm32f4xx_hal_i2s.c ****     }
 1738              		.loc 1 270 0
 1739 00b8 1026     		movs	r6, #16
 1740 00ba BFE7     		b	.L164
 1741              	.LVL155:
 1742              	.L187:
 298:Drivers/STM32F4xx_HAL_Driver/Src/stm32f4xx_hal_i2s.c ****       {
 1743              		.loc 1 298 0
 1744 00bc E368     		ldr	r3, [r4, #12]
 1745 00be 53B1     		cbz	r3, .L167
 300:Drivers/STM32F4xx_HAL_Driver/Src/stm32f4xx_hal_i2s.c ****       }
 1746              		.loc 1 300 0
 1747 00c0 B600     		lsls	r6, r6, #2
 1748              	.LVL156:
 1749 00c2 B0FBF6F0 		udiv	r0, r0, r6
 1750              	.LVL157:
 1751 00c6 00EB8000 		add	r0, r0, r0, lsl #2
 1752 00ca 4300     		lsls	r3, r0, #1
 1753 00cc 6269     		ldr	r2, [r4, #20]
 1754 00ce B3FBF2F3 		udiv	r3, r3, r2
 1755 00d2 0533     		adds	r3, r3, #5
 1756              	.LVL158:
 1757 00d4 C6E7     		b	.L168
 1758              	.LVL159:
 1759              	.L167:
 304:Drivers/STM32F4xx_HAL_Driver/Src/stm32f4xx_hal_i2s.c ****       }
 1760              		.loc 1 304 0
 1761 00d6 F600     		lsls	r6, r6, #3
 1762              	.LVL160:
 1763 00d8 B0FBF6F0 		udiv	r0, r0, r6
 1764              	.LVL161:
 1765 00dc 00EB8000 		add	r0, r0, r0, lsl #2
 1766 00e0 4300     		lsls	r3, r0, #1
 1767 00e2 6269     		ldr	r2, [r4, #20]
 1768 00e4 B3FBF2F3 		udiv	r3, r3, r2
 1769 00e8 0533     		adds	r3, r3, #5
 1770              	.LVL162:
 1771 00ea BBE7     		b	.L168
 1772              	.LVL163:
 1773              	.L176:
 219:Drivers/STM32F4xx_HAL_Driver/Src/stm32f4xx_hal_i2s.c ****   uint32_t tmp = 0U, i2sclk = 0U;
 1774              		.loc 1 219 0
 1775 00ec 0022     		movs	r2, #0
 1776 00ee C3E7     		b	.L163
 1777              	.LVL164:
 1778              	.L188:
ARM GAS  C:\Users\Student\AppData\Local\Temp\ccUcoAHh.s 			page 63


 334:Drivers/STM32F4xx_HAL_Driver/Src/stm32f4xx_hal_i2s.c ****     HAL_I2S_ErrorCallback(hi2s);
 1779              		.loc 1 334 0
 1780 00f0 636C     		ldr	r3, [r4, #68]
 1781 00f2 43F01003 		orr	r3, r3, #16
 1782 00f6 6364     		str	r3, [r4, #68]
 335:Drivers/STM32F4xx_HAL_Driver/Src/stm32f4xx_hal_i2s.c ****     return  HAL_ERROR;
 1783              		.loc 1 335 0
 1784 00f8 2046     		mov	r0, r4
 1785 00fa FFF7FEFF 		bl	HAL_I2S_ErrorCallback
 1786              	.LVL165:
 336:Drivers/STM32F4xx_HAL_Driver/Src/stm32f4xx_hal_i2s.c ****   }
 1787              		.loc 1 336 0
 1788 00fe 0120     		movs	r0, #1
 1789 0100 70BD     		pop	{r4, r5, r6, pc}
 1790              	.LVL166:
 1791              	.L189:
 371:Drivers/STM32F4xx_HAL_Driver/Src/stm32f4xx_hal_i2s.c **** 
 1792              		.loc 1 371 0
 1793 0102 214B     		ldr	r3, .L193+8
 1794 0104 6363     		str	r3, [r4, #52]
 374:Drivers/STM32F4xx_HAL_Driver/Src/stm32f4xx_hal_i2s.c ****                                                 SPI_I2SCFGR_I2SSTD | SPI_I2SCFGR_PCMSYNC | SPI_I2SC
 1795              		.loc 1 374 0
 1796 0106 2268     		ldr	r2, [r4]
 1797 0108 204B     		ldr	r3, .L193+12
 1798 010a 9A42     		cmp	r2, r3
 1799 010c 2AD0     		beq	.L190
 1800 010e 4FF04022 		mov	r2, #1073758208
 1801              	.L171:
 374:Drivers/STM32F4xx_HAL_Driver/Src/stm32f4xx_hal_i2s.c ****                                                 SPI_I2SCFGR_I2SSTD | SPI_I2SCFGR_PCMSYNC | SPI_I2SC
 1802              		.loc 1 374 0 is_stmt 0 discriminator 4
 1803 0112 D369     		ldr	r3, [r2, #28]
 1804 0114 23F47B63 		bic	r3, r3, #4016
 1805 0118 23F00F03 		bic	r3, r3, #15
 1806 011c D361     		str	r3, [r2, #28]
 377:Drivers/STM32F4xx_HAL_Driver/Src/stm32f4xx_hal_i2s.c **** 
 1807              		.loc 1 377 0 is_stmt 1 discriminator 4
 1808 011e 2268     		ldr	r2, [r4]
 1809 0120 1A4B     		ldr	r3, .L193+12
 1810 0122 9A42     		cmp	r2, r3
 1811 0124 20D0     		beq	.L191
 377:Drivers/STM32F4xx_HAL_Driver/Src/stm32f4xx_hal_i2s.c **** 
 1812              		.loc 1 377 0 is_stmt 0
 1813 0126 4FF04022 		mov	r2, #1073758208
 1814              	.L172:
 377:Drivers/STM32F4xx_HAL_Driver/Src/stm32f4xx_hal_i2s.c **** 
 1815              		.loc 1 377 0 discriminator 4
 1816 012a 0223     		movs	r3, #2
 1817 012c 1362     		str	r3, [r2, #32]
 380:Drivers/STM32F4xx_HAL_Driver/Src/stm32f4xx_hal_i2s.c **** 
 1818              		.loc 1 380 0 is_stmt 1 discriminator 4
 1819 012e 2268     		ldr	r2, [r4]
 1820 0130 164B     		ldr	r3, .L193+12
 1821 0132 9A42     		cmp	r2, r3
 1822 0134 1AD0     		beq	.L192
 380:Drivers/STM32F4xx_HAL_Driver/Src/stm32f4xx_hal_i2s.c **** 
 1823              		.loc 1 380 0 is_stmt 0
 1824 0136 4FF04021 		mov	r1, #1073758208
ARM GAS  C:\Users\Student\AppData\Local\Temp\ccUcoAHh.s 			page 64


 1825              	.L173:
 380:Drivers/STM32F4xx_HAL_Driver/Src/stm32f4xx_hal_i2s.c **** 
 1826              		.loc 1 380 0 discriminator 4
 1827 013a CA69     		ldr	r2, [r1, #28]
 1828              	.LVL167:
 383:Drivers/STM32F4xx_HAL_Driver/Src/stm32f4xx_hal_i2s.c ****     {
 1829              		.loc 1 383 0 is_stmt 1 discriminator 4
 1830 013c 6368     		ldr	r3, [r4, #4]
 1831 013e B3F5007F 		cmp	r3, #512
 1832 0142 15D0     		beq	.L181
 383:Drivers/STM32F4xx_HAL_Driver/Src/stm32f4xx_hal_i2s.c ****     {
 1833              		.loc 1 383 0 is_stmt 0 discriminator 1
 1834 0144 BBB9     		cbnz	r3, .L182
 385:Drivers/STM32F4xx_HAL_Driver/Src/stm32f4xx_hal_i2s.c ****     }
 1835              		.loc 1 385 0 is_stmt 1
 1836 0146 4FF48076 		mov	r6, #256
 1837              	.L174:
 1838              	.LVL168:
 394:Drivers/STM32F4xx_HAL_Driver/Src/stm32f4xx_hal_i2s.c ****                          (uint16_t)hi2s->Init.CPOL))));
 1839              		.loc 1 394 0
 1840 014a A068     		ldr	r0, [r4, #8]
 1841 014c E568     		ldr	r5, [r4, #12]
 395:Drivers/STM32F4xx_HAL_Driver/Src/stm32f4xx_hal_i2s.c **** 
 1842              		.loc 1 395 0
 1843 014e 238B     		ldrh	r3, [r4, #24]
 394:Drivers/STM32F4xx_HAL_Driver/Src/stm32f4xx_hal_i2s.c ****                          (uint16_t)hi2s->Init.CPOL))));
 1844              		.loc 1 394 0
 1845 0150 2B43     		orrs	r3, r3, r5
 1846 0152 9BB2     		uxth	r3, r3
 1847 0154 0343     		orrs	r3, r3, r0
 1848 0156 9BB2     		uxth	r3, r3
 393:Drivers/STM32F4xx_HAL_Driver/Src/stm32f4xx_hal_i2s.c ****                          (uint16_t)(hi2s->Init.Standard | (uint16_t)(hi2s->Init.DataFormat | \
 1849              		.loc 1 393 0
 1850 0158 3343     		orrs	r3, r3, r6
 1851 015a 43F40063 		orr	r3, r3, #2048
 1852 015e 1343     		orrs	r3, r3, r2
 1853              	.LVL169:
 398:Drivers/STM32F4xx_HAL_Driver/Src/stm32f4xx_hal_i2s.c ****   }
 1854              		.loc 1 398 0
 1855 0160 CB61     		str	r3, [r1, #28]
 1856 0162 A3E7     		b	.L170
 1857              	.LVL170:
 1858              	.L190:
 374:Drivers/STM32F4xx_HAL_Driver/Src/stm32f4xx_hal_i2s.c ****                                                 SPI_I2SCFGR_I2SSTD | SPI_I2SCFGR_PCMSYNC | SPI_I2SC
 1859              		.loc 1 374 0
 1860 0164 0A4A     		ldr	r2, .L193+16
 1861 0166 D4E7     		b	.L171
 1862              	.L191:
 377:Drivers/STM32F4xx_HAL_Driver/Src/stm32f4xx_hal_i2s.c **** 
 1863              		.loc 1 377 0
 1864 0168 094A     		ldr	r2, .L193+16
 1865 016a DEE7     		b	.L172
 1866              	.L192:
 380:Drivers/STM32F4xx_HAL_Driver/Src/stm32f4xx_hal_i2s.c **** 
 1867              		.loc 1 380 0
 1868 016c 0849     		ldr	r1, .L193+16
 1869 016e E4E7     		b	.L173
ARM GAS  C:\Users\Student\AppData\Local\Temp\ccUcoAHh.s 			page 65


 1870              	.LVL171:
 1871              	.L181:
 385:Drivers/STM32F4xx_HAL_Driver/Src/stm32f4xx_hal_i2s.c ****     }
 1872              		.loc 1 385 0
 1873 0170 4FF48076 		mov	r6, #256
 1874 0174 E9E7     		b	.L174
 1875              	.L182:
 389:Drivers/STM32F4xx_HAL_Driver/Src/stm32f4xx_hal_i2s.c ****     }
 1876              		.loc 1 389 0
 1877 0176 0026     		movs	r6, #0
 1878 0178 E7E7     		b	.L174
 1879              	.LVL172:
 1880              	.L175:
 1881              	.LCFI22:
 1882              		.cfi_def_cfa_offset 0
 1883              		.cfi_restore 4
 1884              		.cfi_restore 5
 1885              		.cfi_restore 6
 1886              		.cfi_restore 14
 225:Drivers/STM32F4xx_HAL_Driver/Src/stm32f4xx_hal_i2s.c ****   }
 1887              		.loc 1 225 0
 1888 017a 0120     		movs	r0, #1
 1889              	.LVL173:
 1890 017c 7047     		bx	lr
 1891              	.L194:
 1892 017e 00BF     		.align	2
 1893              	.L193:
 1894 0180 00000000 		.word	I2S_IRQHandler
 1895 0184 CDCCCCCC 		.word	-858993459
 1896 0188 00000000 		.word	HAL_I2SEx_FullDuplex_IRQHandler
 1897 018c 00380040 		.word	1073756160
 1898 0190 00340040 		.word	1073755136
 1899              		.cfi_endproc
 1900              	.LFE124:
 1902              		.section	.text.I2S_IRQHandler,"ax",%progbits
 1903              		.align	1
 1904              		.syntax unified
 1905              		.thumb
 1906              		.thumb_func
 1907              		.fpu fpv4-sp-d16
 1909              	I2S_IRQHandler:
 1910              	.LFB152:
1437:Drivers/STM32F4xx_HAL_Driver/Src/stm32f4xx_hal_i2s.c ****   __IO uint32_t i2ssr = hi2s->Instance->SR;
 1911              		.loc 1 1437 0
 1912              		.cfi_startproc
 1913              		@ args = 0, pretend = 0, frame = 16
 1914              		@ frame_needed = 0, uses_anonymous_args = 0
 1915              	.LVL174:
 1916 0000 10B5     		push	{r4, lr}
 1917              	.LCFI23:
 1918              		.cfi_def_cfa_offset 8
 1919              		.cfi_offset 4, -8
 1920              		.cfi_offset 14, -4
 1921 0002 84B0     		sub	sp, sp, #16
 1922              	.LCFI24:
 1923              		.cfi_def_cfa_offset 24
 1924 0004 0446     		mov	r4, r0
ARM GAS  C:\Users\Student\AppData\Local\Temp\ccUcoAHh.s 			page 66


1438:Drivers/STM32F4xx_HAL_Driver/Src/stm32f4xx_hal_i2s.c **** 
 1925              		.loc 1 1438 0
 1926 0006 0268     		ldr	r2, [r0]
 1927 0008 9368     		ldr	r3, [r2, #8]
 1928 000a 0393     		str	r3, [sp, #12]
1440:Drivers/STM32F4xx_HAL_Driver/Src/stm32f4xx_hal_i2s.c ****   {
 1929              		.loc 1 1440 0
 1930 000c 90F84130 		ldrb	r3, [r0, #65]	@ zero_extendqisi2
 1931 0010 DBB2     		uxtb	r3, r3
 1932 0012 042B     		cmp	r3, #4
 1933 0014 06D0     		beq	.L201
 1934              	.LVL175:
 1935              	.L196:
1467:Drivers/STM32F4xx_HAL_Driver/Src/stm32f4xx_hal_i2s.c ****     {
 1936              		.loc 1 1467 0
 1937 0016 94F84130 		ldrb	r3, [r4, #65]	@ zero_extendqisi2
 1938 001a DBB2     		uxtb	r3, r3
 1939 001c 032B     		cmp	r3, #3
 1940 001e 2ED0     		beq	.L202
 1941              	.L195:
1492:Drivers/STM32F4xx_HAL_Driver/Src/stm32f4xx_hal_i2s.c **** 
 1942              		.loc 1 1492 0
 1943 0020 04B0     		add	sp, sp, #16
 1944              	.LCFI25:
 1945              		.cfi_remember_state
 1946              		.cfi_def_cfa_offset 8
 1947              		@ sp needed
 1948 0022 10BD     		pop	{r4, pc}
 1949              	.LVL176:
 1950              	.L201:
 1951              	.LCFI26:
 1952              		.cfi_restore_state
1443:Drivers/STM32F4xx_HAL_Driver/Src/stm32f4xx_hal_i2s.c ****     {
 1953              		.loc 1 1443 0
 1954 0024 039B     		ldr	r3, [sp, #12]
 1955 0026 13F0010F 		tst	r3, #1
 1956 002a 03D0     		beq	.L197
1443:Drivers/STM32F4xx_HAL_Driver/Src/stm32f4xx_hal_i2s.c ****     {
 1957              		.loc 1 1443 0 is_stmt 0 discriminator 1
 1958 002c 5368     		ldr	r3, [r2, #4]
 1959 002e 13F0400F 		tst	r3, #64
 1960 0032 21D1     		bne	.L203
 1961              	.LVL177:
 1962              	.L197:
1449:Drivers/STM32F4xx_HAL_Driver/Src/stm32f4xx_hal_i2s.c ****     {
 1963              		.loc 1 1449 0 is_stmt 1
 1964 0034 039B     		ldr	r3, [sp, #12]
 1965 0036 13F0400F 		tst	r3, #64
 1966 003a ECD0     		beq	.L196
1449:Drivers/STM32F4xx_HAL_Driver/Src/stm32f4xx_hal_i2s.c ****     {
 1967              		.loc 1 1449 0 is_stmt 0 discriminator 1
 1968 003c 2368     		ldr	r3, [r4]
 1969 003e 5A68     		ldr	r2, [r3, #4]
 1970 0040 12F0200F 		tst	r2, #32
 1971 0044 E7D0     		beq	.L196
1452:Drivers/STM32F4xx_HAL_Driver/Src/stm32f4xx_hal_i2s.c **** 
 1972              		.loc 1 1452 0 is_stmt 1
ARM GAS  C:\Users\Student\AppData\Local\Temp\ccUcoAHh.s 			page 67


 1973 0046 5A68     		ldr	r2, [r3, #4]
 1974 0048 22F06002 		bic	r2, r2, #96
 1975 004c 1204     		lsls	r2, r2, #16
 1976 004e 120C     		lsrs	r2, r2, #16
 1977 0050 5A60     		str	r2, [r3, #4]
 1978              	.LBB3:
1455:Drivers/STM32F4xx_HAL_Driver/Src/stm32f4xx_hal_i2s.c **** 
 1979              		.loc 1 1455 0
 1980 0052 0023     		movs	r3, #0
 1981 0054 0193     		str	r3, [sp, #4]
 1982 0056 2368     		ldr	r3, [r4]
 1983 0058 DA68     		ldr	r2, [r3, #12]
 1984 005a 0192     		str	r2, [sp, #4]
 1985 005c 9B68     		ldr	r3, [r3, #8]
 1986 005e 0193     		str	r3, [sp, #4]
 1987 0060 019B     		ldr	r3, [sp, #4]
 1988              	.LBE3:
1458:Drivers/STM32F4xx_HAL_Driver/Src/stm32f4xx_hal_i2s.c **** 
 1989              		.loc 1 1458 0
 1990 0062 0123     		movs	r3, #1
 1991 0064 84F84130 		strb	r3, [r4, #65]
1462:Drivers/STM32F4xx_HAL_Driver/Src/stm32f4xx_hal_i2s.c ****       HAL_I2S_ErrorCallback(hi2s);
 1992              		.loc 1 1462 0
 1993 0068 636C     		ldr	r3, [r4, #68]
 1994 006a 43F00203 		orr	r3, r3, #2
 1995 006e 6364     		str	r3, [r4, #68]
1463:Drivers/STM32F4xx_HAL_Driver/Src/stm32f4xx_hal_i2s.c ****       }
 1996              		.loc 1 1463 0
 1997 0070 2046     		mov	r0, r4
 1998 0072 FFF7FEFF 		bl	HAL_I2S_ErrorCallback
 1999              	.LVL178:
 2000 0076 CEE7     		b	.L196
 2001              	.LVL179:
 2002              	.L203:
1445:Drivers/STM32F4xx_HAL_Driver/Src/stm32f4xx_hal_i2s.c ****     }
 2003              		.loc 1 1445 0
 2004 0078 FFF7FEFF 		bl	I2S_Receive_IT
 2005              	.LVL180:
 2006 007c DAE7     		b	.L197
 2007              	.L202:
1470:Drivers/STM32F4xx_HAL_Driver/Src/stm32f4xx_hal_i2s.c ****       {
 2008              		.loc 1 1470 0
 2009 007e 039B     		ldr	r3, [sp, #12]
 2010 0080 13F0020F 		tst	r3, #2
 2011 0084 04D0     		beq	.L199
1470:Drivers/STM32F4xx_HAL_Driver/Src/stm32f4xx_hal_i2s.c ****       {
 2012              		.loc 1 1470 0 is_stmt 0 discriminator 1
 2013 0086 2368     		ldr	r3, [r4]
 2014 0088 5B68     		ldr	r3, [r3, #4]
 2015 008a 13F0800F 		tst	r3, #128
 2016 008e 1FD1     		bne	.L204
 2017              	.L199:
1476:Drivers/STM32F4xx_HAL_Driver/Src/stm32f4xx_hal_i2s.c ****       {
 2018              		.loc 1 1476 0 is_stmt 1
 2019 0090 039B     		ldr	r3, [sp, #12]
 2020 0092 13F0080F 		tst	r3, #8
 2021 0096 C3D0     		beq	.L195
ARM GAS  C:\Users\Student\AppData\Local\Temp\ccUcoAHh.s 			page 68


1476:Drivers/STM32F4xx_HAL_Driver/Src/stm32f4xx_hal_i2s.c ****       {
 2022              		.loc 1 1476 0 is_stmt 0 discriminator 1
 2023 0098 2368     		ldr	r3, [r4]
 2024 009a 5A68     		ldr	r2, [r3, #4]
 2025 009c 12F0200F 		tst	r2, #32
 2026 00a0 BED0     		beq	.L195
1479:Drivers/STM32F4xx_HAL_Driver/Src/stm32f4xx_hal_i2s.c **** 
 2027              		.loc 1 1479 0 is_stmt 1
 2028 00a2 5A68     		ldr	r2, [r3, #4]
 2029 00a4 22F0A002 		bic	r2, r2, #160
 2030 00a8 1204     		lsls	r2, r2, #16
 2031 00aa 120C     		lsrs	r2, r2, #16
 2032 00ac 5A60     		str	r2, [r3, #4]
 2033              	.LBB4:
1482:Drivers/STM32F4xx_HAL_Driver/Src/stm32f4xx_hal_i2s.c **** 
 2034              		.loc 1 1482 0
 2035 00ae 0023     		movs	r3, #0
 2036 00b0 0293     		str	r3, [sp, #8]
 2037 00b2 2368     		ldr	r3, [r4]
 2038 00b4 9B68     		ldr	r3, [r3, #8]
 2039 00b6 0293     		str	r3, [sp, #8]
 2040 00b8 029B     		ldr	r3, [sp, #8]
 2041              	.LBE4:
1485:Drivers/STM32F4xx_HAL_Driver/Src/stm32f4xx_hal_i2s.c **** 
 2042              		.loc 1 1485 0
 2043 00ba 0123     		movs	r3, #1
 2044 00bc 84F84130 		strb	r3, [r4, #65]
1488:Drivers/STM32F4xx_HAL_Driver/Src/stm32f4xx_hal_i2s.c ****       HAL_I2S_ErrorCallback(hi2s);
 2045              		.loc 1 1488 0
 2046 00c0 636C     		ldr	r3, [r4, #68]
 2047 00c2 43F00403 		orr	r3, r3, #4
 2048 00c6 6364     		str	r3, [r4, #68]
1489:Drivers/STM32F4xx_HAL_Driver/Src/stm32f4xx_hal_i2s.c ****     }
 2049              		.loc 1 1489 0
 2050 00c8 2046     		mov	r0, r4
 2051 00ca FFF7FEFF 		bl	HAL_I2S_ErrorCallback
 2052              	.LVL181:
1492:Drivers/STM32F4xx_HAL_Driver/Src/stm32f4xx_hal_i2s.c **** 
 2053              		.loc 1 1492 0
 2054 00ce A7E7     		b	.L195
 2055              	.L204:
1472:Drivers/STM32F4xx_HAL_Driver/Src/stm32f4xx_hal_i2s.c ****       }
 2056              		.loc 1 1472 0
 2057 00d0 2046     		mov	r0, r4
 2058 00d2 FFF7FEFF 		bl	I2S_Transmit_IT
 2059              	.LVL182:
 2060 00d6 DBE7     		b	.L199
 2061              		.cfi_endproc
 2062              	.LFE152:
 2064              		.section	.text.HAL_I2S_Transmit,"ax",%progbits
 2065              		.align	1
 2066              		.global	HAL_I2S_Transmit
 2067              		.syntax unified
 2068              		.thumb
 2069              		.thumb_func
 2070              		.fpu fpv4-sp-d16
 2072              	HAL_I2S_Transmit:
ARM GAS  C:\Users\Student\AppData\Local\Temp\ccUcoAHh.s 			page 69


 2073              	.LFB128:
 527:Drivers/STM32F4xx_HAL_Driver/Src/stm32f4xx_hal_i2s.c ****   uint32_t tmp1 = 0U;
 2074              		.loc 1 527 0
 2075              		.cfi_startproc
 2076              		@ args = 0, pretend = 0, frame = 8
 2077              		@ frame_needed = 0, uses_anonymous_args = 0
 2078              	.LVL183:
 530:Drivers/STM32F4xx_HAL_Driver/Src/stm32f4xx_hal_i2s.c ****   {
 2079              		.loc 1 530 0
 2080 0000 0029     		cmp	r1, #0
 2081 0002 71D0     		beq	.L214
 527:Drivers/STM32F4xx_HAL_Driver/Src/stm32f4xx_hal_i2s.c ****   uint32_t tmp1 = 0U;
 2082              		.loc 1 527 0 discriminator 1
 2083 0004 70B5     		push	{r4, r5, r6, lr}
 2084              	.LCFI27:
 2085              		.cfi_def_cfa_offset 16
 2086              		.cfi_offset 4, -16
 2087              		.cfi_offset 5, -12
 2088              		.cfi_offset 6, -8
 2089              		.cfi_offset 14, -4
 2090 0006 82B0     		sub	sp, sp, #8
 2091              	.LCFI28:
 2092              		.cfi_def_cfa_offset 24
 2093 0008 0446     		mov	r4, r0
 2094 000a 1D46     		mov	r5, r3
 2095 000c 0B46     		mov	r3, r1
 2096              	.LVL184:
 530:Drivers/STM32F4xx_HAL_Driver/Src/stm32f4xx_hal_i2s.c ****   {
 2097              		.loc 1 530 0 discriminator 1
 2098 000e 002A     		cmp	r2, #0
 2099 0010 6CD0     		beq	.L215
 535:Drivers/STM32F4xx_HAL_Driver/Src/stm32f4xx_hal_i2s.c ****   {
 2100              		.loc 1 535 0
 2101 0012 90F84110 		ldrb	r1, [r0, #65]	@ zero_extendqisi2
 2102              	.LVL185:
 2103 0016 C9B2     		uxtb	r1, r1
 2104 0018 0129     		cmp	r1, #1
 2105 001a 02D0     		beq	.L223
 604:Drivers/STM32F4xx_HAL_Driver/Src/stm32f4xx_hal_i2s.c ****   }
 2106              		.loc 1 604 0
 2107 001c 0220     		movs	r0, #2
 2108              	.LVL186:
 2109              	.L206:
 606:Drivers/STM32F4xx_HAL_Driver/Src/stm32f4xx_hal_i2s.c **** 
 2110              		.loc 1 606 0
 2111 001e 02B0     		add	sp, sp, #8
 2112              	.LCFI29:
 2113              		.cfi_remember_state
 2114              		.cfi_def_cfa_offset 16
 2115              		@ sp needed
 2116 0020 70BD     		pop	{r4, r5, r6, pc}
 2117              	.LVL187:
 2118              	.L223:
 2119              	.LCFI30:
 2120              		.cfi_restore_state
 537:Drivers/STM32F4xx_HAL_Driver/Src/stm32f4xx_hal_i2s.c **** 
 2121              		.loc 1 537 0
ARM GAS  C:\Users\Student\AppData\Local\Temp\ccUcoAHh.s 			page 70


 2122 0022 0168     		ldr	r1, [r0]
 2123 0024 C969     		ldr	r1, [r1, #28]
 2124 0026 01F00701 		and	r1, r1, #7
 2125              	.LVL188:
 539:Drivers/STM32F4xx_HAL_Driver/Src/stm32f4xx_hal_i2s.c ****     {
 2126              		.loc 1 539 0
 2127 002a 0329     		cmp	r1, #3
 2128 002c 34D0     		beq	.L207
 539:Drivers/STM32F4xx_HAL_Driver/Src/stm32f4xx_hal_i2s.c ****     {
 2129              		.loc 1 539 0 is_stmt 0 discriminator 1
 2130 002e 0529     		cmp	r1, #5
 2131 0030 32D0     		beq	.L207
 546:Drivers/STM32F4xx_HAL_Driver/Src/stm32f4xx_hal_i2s.c ****       hi2s->TxXferCount = Size;
 2132              		.loc 1 546 0 is_stmt 1
 2133 0032 0285     		strh	r2, [r0, #40]	@ movhi
 547:Drivers/STM32F4xx_HAL_Driver/Src/stm32f4xx_hal_i2s.c ****     }
 2134              		.loc 1 547 0
 2135 0034 4285     		strh	r2, [r0, #42]	@ movhi
 2136              	.LVL189:
 2137              	.L209:
 551:Drivers/STM32F4xx_HAL_Driver/Src/stm32f4xx_hal_i2s.c **** 
 2138              		.loc 1 551 0
 2139 0036 94F84020 		ldrb	r2, [r4, #64]	@ zero_extendqisi2
 2140 003a D2B2     		uxtb	r2, r2
 2141 003c 012A     		cmp	r2, #1
 2142 003e 57D0     		beq	.L217
 551:Drivers/STM32F4xx_HAL_Driver/Src/stm32f4xx_hal_i2s.c **** 
 2143              		.loc 1 551 0 is_stmt 0 discriminator 2
 2144 0040 0122     		movs	r2, #1
 2145 0042 84F84020 		strb	r2, [r4, #64]
 553:Drivers/STM32F4xx_HAL_Driver/Src/stm32f4xx_hal_i2s.c ****     hi2s->State     = HAL_I2S_STATE_BUSY_TX;
 2146              		.loc 1 553 0 is_stmt 1 discriminator 2
 2147 0046 0022     		movs	r2, #0
 2148 0048 6264     		str	r2, [r4, #68]
 554:Drivers/STM32F4xx_HAL_Driver/Src/stm32f4xx_hal_i2s.c **** 
 2149              		.loc 1 554 0 discriminator 2
 2150 004a 0322     		movs	r2, #3
 2151 004c 84F84120 		strb	r2, [r4, #65]
 557:Drivers/STM32F4xx_HAL_Driver/Src/stm32f4xx_hal_i2s.c ****     {
 2152              		.loc 1 557 0 discriminator 2
 2153 0050 2268     		ldr	r2, [r4]
 2154 0052 D169     		ldr	r1, [r2, #28]
 2155              	.LVL190:
 2156 0054 11F4806F 		tst	r1, #1024
 2157 0058 03D1     		bne	.L212
 560:Drivers/STM32F4xx_HAL_Driver/Src/stm32f4xx_hal_i2s.c ****     }
 2158              		.loc 1 560 0
 2159 005a D169     		ldr	r1, [r2, #28]
 2160 005c 41F48061 		orr	r1, r1, #1024
 2161 0060 D161     		str	r1, [r2, #28]
 2162              	.LVL191:
 2163              	.L212:
 563:Drivers/STM32F4xx_HAL_Driver/Src/stm32f4xx_hal_i2s.c ****     {
 2164              		.loc 1 563 0
 2165 0062 628D     		ldrh	r2, [r4, #42]
 2166 0064 92B2     		uxth	r2, r2
 2167 0066 002A     		cmp	r2, #0
ARM GAS  C:\Users\Student\AppData\Local\Temp\ccUcoAHh.s 			page 71


 2168 0068 37D0     		beq	.L224
 565:Drivers/STM32F4xx_HAL_Driver/Src/stm32f4xx_hal_i2s.c ****       hi2s->TxXferCount--;
 2169              		.loc 1 565 0
 2170 006a 2268     		ldr	r2, [r4]
 2171 006c 9E1C     		adds	r6, r3, #2
 2172              	.LVL192:
 2173 006e 1B88     		ldrh	r3, [r3]
 2174 0070 D360     		str	r3, [r2, #12]
 566:Drivers/STM32F4xx_HAL_Driver/Src/stm32f4xx_hal_i2s.c **** 
 2175              		.loc 1 566 0
 2176 0072 638D     		ldrh	r3, [r4, #42]
 2177 0074 9BB2     		uxth	r3, r3
 2178 0076 013B     		subs	r3, r3, #1
 2179 0078 9BB2     		uxth	r3, r3
 2180 007a 6385     		strh	r3, [r4, #42]	@ movhi
 569:Drivers/STM32F4xx_HAL_Driver/Src/stm32f4xx_hal_i2s.c ****       {
 2181              		.loc 1 569 0
 2182 007c 2B46     		mov	r3, r5
 2183 007e 0122     		movs	r2, #1
 2184 0080 0221     		movs	r1, #2
 2185 0082 2046     		mov	r0, r4
 2186 0084 FFF7FEFF 		bl	I2S_WaitFlagStateUntilTimeout
 2187              	.LVL193:
 2188 0088 58B9     		cbnz	r0, .L225
 578:Drivers/STM32F4xx_HAL_Driver/Src/stm32f4xx_hal_i2s.c ****       {
 2189              		.loc 1 578 0
 2190 008a 2368     		ldr	r3, [r4]
 2191 008c 9A68     		ldr	r2, [r3, #8]
 2192 008e 12F0080F 		tst	r2, #8
 2193 0092 0FD1     		bne	.L226
 565:Drivers/STM32F4xx_HAL_Driver/Src/stm32f4xx_hal_i2s.c ****       hi2s->TxXferCount--;
 2194              		.loc 1 565 0
 2195 0094 3346     		mov	r3, r6
 2196 0096 E4E7     		b	.L212
 2197              	.LVL194:
 2198              	.L207:
 541:Drivers/STM32F4xx_HAL_Driver/Src/stm32f4xx_hal_i2s.c ****       hi2s->TxXferCount = (Size << 1U);
 2199              		.loc 1 541 0
 2200 0098 5200     		lsls	r2, r2, #1
 2201              	.LVL195:
 2202 009a 92B2     		uxth	r2, r2
 2203 009c 2285     		strh	r2, [r4, #40]	@ movhi
 542:Drivers/STM32F4xx_HAL_Driver/Src/stm32f4xx_hal_i2s.c ****     }
 2204              		.loc 1 542 0
 2205 009e 6285     		strh	r2, [r4, #42]	@ movhi
 2206 00a0 C9E7     		b	.L209
 2207              	.LVL196:
 2208              	.L225:
 572:Drivers/STM32F4xx_HAL_Driver/Src/stm32f4xx_hal_i2s.c ****         HAL_I2S_ErrorCallback(hi2s);
 2209              		.loc 1 572 0
 2210 00a2 636C     		ldr	r3, [r4, #68]
 2211 00a4 43F00103 		orr	r3, r3, #1
 2212 00a8 6364     		str	r3, [r4, #68]
 573:Drivers/STM32F4xx_HAL_Driver/Src/stm32f4xx_hal_i2s.c ****         return HAL_TIMEOUT;
 2213              		.loc 1 573 0
 2214 00aa 2046     		mov	r0, r4
 2215 00ac FFF7FEFF 		bl	HAL_I2S_ErrorCallback
ARM GAS  C:\Users\Student\AppData\Local\Temp\ccUcoAHh.s 			page 72


 2216              	.LVL197:
 574:Drivers/STM32F4xx_HAL_Driver/Src/stm32f4xx_hal_i2s.c ****       }
 2217              		.loc 1 574 0
 2218 00b0 0320     		movs	r0, #3
 2219 00b2 B4E7     		b	.L206
 2220              	.L226:
 2221              	.LBB5:
 581:Drivers/STM32F4xx_HAL_Driver/Src/stm32f4xx_hal_i2s.c ****         /* Set the I2S State ready */
 2222              		.loc 1 581 0
 2223 00b4 0022     		movs	r2, #0
 2224 00b6 0192     		str	r2, [sp, #4]
 2225 00b8 9B68     		ldr	r3, [r3, #8]
 2226 00ba 0193     		str	r3, [sp, #4]
 2227 00bc 019B     		ldr	r3, [sp, #4]
 2228              	.LBE5:
 583:Drivers/STM32F4xx_HAL_Driver/Src/stm32f4xx_hal_i2s.c **** 
 2229              		.loc 1 583 0
 2230 00be 0125     		movs	r5, #1
 2231              	.LVL198:
 2232 00c0 84F84150 		strb	r5, [r4, #65]
 586:Drivers/STM32F4xx_HAL_Driver/Src/stm32f4xx_hal_i2s.c **** 
 2233              		.loc 1 586 0
 2234 00c4 84F84020 		strb	r2, [r4, #64]
 589:Drivers/STM32F4xx_HAL_Driver/Src/stm32f4xx_hal_i2s.c ****         HAL_I2S_ErrorCallback(hi2s);
 2235              		.loc 1 589 0
 2236 00c8 636C     		ldr	r3, [r4, #68]
 2237 00ca 43F00403 		orr	r3, r3, #4
 2238 00ce 6364     		str	r3, [r4, #68]
 590:Drivers/STM32F4xx_HAL_Driver/Src/stm32f4xx_hal_i2s.c **** 
 2239              		.loc 1 590 0
 2240 00d0 2046     		mov	r0, r4
 2241 00d2 FFF7FEFF 		bl	HAL_I2S_ErrorCallback
 2242              	.LVL199:
 592:Drivers/STM32F4xx_HAL_Driver/Src/stm32f4xx_hal_i2s.c ****       }
 2243              		.loc 1 592 0
 2244 00d6 2846     		mov	r0, r5
 2245 00d8 A1E7     		b	.L206
 2246              	.LVL200:
 2247              	.L224:
 595:Drivers/STM32F4xx_HAL_Driver/Src/stm32f4xx_hal_i2s.c **** 
 2248              		.loc 1 595 0
 2249 00da 0123     		movs	r3, #1
 2250              	.LVL201:
 2251 00dc 84F84130 		strb	r3, [r4, #65]
 598:Drivers/STM32F4xx_HAL_Driver/Src/stm32f4xx_hal_i2s.c **** 
 2252              		.loc 1 598 0
 2253 00e0 0020     		movs	r0, #0
 2254 00e2 84F84000 		strb	r0, [r4, #64]
 600:Drivers/STM32F4xx_HAL_Driver/Src/stm32f4xx_hal_i2s.c ****   }
 2255              		.loc 1 600 0
 2256 00e6 9AE7     		b	.L206
 2257              	.LVL202:
 2258              	.L214:
 2259              	.LCFI31:
 2260              		.cfi_def_cfa_offset 0
 2261              		.cfi_restore 4
 2262              		.cfi_restore 5
ARM GAS  C:\Users\Student\AppData\Local\Temp\ccUcoAHh.s 			page 73


 2263              		.cfi_restore 6
 2264              		.cfi_restore 14
 532:Drivers/STM32F4xx_HAL_Driver/Src/stm32f4xx_hal_i2s.c ****   }
 2265              		.loc 1 532 0
 2266 00e8 0120     		movs	r0, #1
 2267              	.LVL203:
 2268 00ea 7047     		bx	lr
 2269              	.LVL204:
 2270              	.L215:
 2271              	.LCFI32:
 2272              		.cfi_def_cfa_offset 24
 2273              		.cfi_offset 4, -16
 2274              		.cfi_offset 5, -12
 2275              		.cfi_offset 6, -8
 2276              		.cfi_offset 14, -4
 2277 00ec 0120     		movs	r0, #1
 2278              	.LVL205:
 2279 00ee 96E7     		b	.L206
 2280              	.LVL206:
 2281              	.L217:
 551:Drivers/STM32F4xx_HAL_Driver/Src/stm32f4xx_hal_i2s.c **** 
 2282              		.loc 1 551 0
 2283 00f0 0220     		movs	r0, #2
 2284              	.LVL207:
 2285 00f2 94E7     		b	.L206
 2286              		.cfi_endproc
 2287              	.LFE128:
 2289              		.section	.text.HAL_I2S_Receive,"ax",%progbits
 2290              		.align	1
 2291              		.global	HAL_I2S_Receive
 2292              		.syntax unified
 2293              		.thumb
 2294              		.thumb_func
 2295              		.fpu fpv4-sp-d16
 2297              	HAL_I2S_Receive:
 2298              	.LFB129:
 626:Drivers/STM32F4xx_HAL_Driver/Src/stm32f4xx_hal_i2s.c ****   uint32_t tmp1 = 0U;
 2299              		.loc 1 626 0
 2300              		.cfi_startproc
 2301              		@ args = 0, pretend = 0, frame = 8
 2302              		@ frame_needed = 0, uses_anonymous_args = 0
 2303              	.LVL208:
 629:Drivers/STM32F4xx_HAL_Driver/Src/stm32f4xx_hal_i2s.c ****   {
 2304              		.loc 1 629 0
 2305 0000 0029     		cmp	r1, #0
 2306 0002 00F08180 		beq	.L238
 626:Drivers/STM32F4xx_HAL_Driver/Src/stm32f4xx_hal_i2s.c ****   uint32_t tmp1 = 0U;
 2307              		.loc 1 626 0 discriminator 1
 2308 0006 70B5     		push	{r4, r5, r6, lr}
 2309              	.LCFI33:
 2310              		.cfi_def_cfa_offset 16
 2311              		.cfi_offset 4, -16
 2312              		.cfi_offset 5, -12
 2313              		.cfi_offset 6, -8
 2314              		.cfi_offset 14, -4
 2315 0008 82B0     		sub	sp, sp, #8
 2316              	.LCFI34:
ARM GAS  C:\Users\Student\AppData\Local\Temp\ccUcoAHh.s 			page 74


 2317              		.cfi_def_cfa_offset 24
 2318 000a 0446     		mov	r4, r0
 2319 000c 1E46     		mov	r6, r3
 2320 000e 0D46     		mov	r5, r1
 629:Drivers/STM32F4xx_HAL_Driver/Src/stm32f4xx_hal_i2s.c ****   {
 2321              		.loc 1 629 0 discriminator 1
 2322 0010 002A     		cmp	r2, #0
 2323 0012 7BD0     		beq	.L239
 634:Drivers/STM32F4xx_HAL_Driver/Src/stm32f4xx_hal_i2s.c ****   {
 2324              		.loc 1 634 0
 2325 0014 90F84130 		ldrb	r3, [r0, #65]	@ zero_extendqisi2
 2326              	.LVL209:
 2327 0018 DBB2     		uxtb	r3, r3
 2328 001a 012B     		cmp	r3, #1
 2329 001c 02D0     		beq	.L246
 712:Drivers/STM32F4xx_HAL_Driver/Src/stm32f4xx_hal_i2s.c ****   }
 2330              		.loc 1 712 0
 2331 001e 0220     		movs	r0, #2
 2332              	.LVL210:
 2333              	.L228:
 714:Drivers/STM32F4xx_HAL_Driver/Src/stm32f4xx_hal_i2s.c **** 
 2334              		.loc 1 714 0
 2335 0020 02B0     		add	sp, sp, #8
 2336              	.LCFI35:
 2337              		.cfi_remember_state
 2338              		.cfi_def_cfa_offset 16
 2339              		@ sp needed
 2340 0022 70BD     		pop	{r4, r5, r6, pc}
 2341              	.LVL211:
 2342              	.L246:
 2343              	.LCFI36:
 2344              		.cfi_restore_state
 636:Drivers/STM32F4xx_HAL_Driver/Src/stm32f4xx_hal_i2s.c ****     if((tmp1 == I2S_DATAFORMAT_24B) || (tmp1 == I2S_DATAFORMAT_32B))
 2345              		.loc 1 636 0
 2346 0024 0368     		ldr	r3, [r0]
 2347 0026 DB69     		ldr	r3, [r3, #28]
 2348 0028 03F00703 		and	r3, r3, #7
 2349              	.LVL212:
 637:Drivers/STM32F4xx_HAL_Driver/Src/stm32f4xx_hal_i2s.c ****     {
 2350              		.loc 1 637 0
 2351 002c 032B     		cmp	r3, #3
 2352 002e 39D0     		beq	.L229
 637:Drivers/STM32F4xx_HAL_Driver/Src/stm32f4xx_hal_i2s.c ****     {
 2353              		.loc 1 637 0 is_stmt 0 discriminator 1
 2354 0030 052B     		cmp	r3, #5
 2355 0032 37D0     		beq	.L229
 644:Drivers/STM32F4xx_HAL_Driver/Src/stm32f4xx_hal_i2s.c ****       hi2s->RxXferCount = Size;
 2356              		.loc 1 644 0 is_stmt 1
 2357 0034 0286     		strh	r2, [r0, #48]	@ movhi
 645:Drivers/STM32F4xx_HAL_Driver/Src/stm32f4xx_hal_i2s.c ****     }
 2358              		.loc 1 645 0
 2359 0036 4286     		strh	r2, [r0, #50]	@ movhi
 2360              	.LVL213:
 2361              	.L231:
 648:Drivers/STM32F4xx_HAL_Driver/Src/stm32f4xx_hal_i2s.c **** 
 2362              		.loc 1 648 0
 2363 0038 94F84030 		ldrb	r3, [r4, #64]	@ zero_extendqisi2
ARM GAS  C:\Users\Student\AppData\Local\Temp\ccUcoAHh.s 			page 75


 2364              	.LVL214:
 2365 003c DBB2     		uxtb	r3, r3
 2366 003e 012B     		cmp	r3, #1
 2367 0040 66D0     		beq	.L241
 648:Drivers/STM32F4xx_HAL_Driver/Src/stm32f4xx_hal_i2s.c **** 
 2368              		.loc 1 648 0 is_stmt 0 discriminator 2
 2369 0042 0123     		movs	r3, #1
 2370 0044 84F84030 		strb	r3, [r4, #64]
 650:Drivers/STM32F4xx_HAL_Driver/Src/stm32f4xx_hal_i2s.c ****     hi2s->State     = HAL_I2S_STATE_BUSY_RX;
 2371              		.loc 1 650 0 is_stmt 1 discriminator 2
 2372 0048 0023     		movs	r3, #0
 2373 004a 6364     		str	r3, [r4, #68]
 651:Drivers/STM32F4xx_HAL_Driver/Src/stm32f4xx_hal_i2s.c **** 
 2374              		.loc 1 651 0 discriminator 2
 2375 004c 0423     		movs	r3, #4
 2376 004e 84F84130 		strb	r3, [r4, #65]
 654:Drivers/STM32F4xx_HAL_Driver/Src/stm32f4xx_hal_i2s.c ****     {
 2377              		.loc 1 654 0 discriminator 2
 2378 0052 2368     		ldr	r3, [r4]
 2379 0054 DA69     		ldr	r2, [r3, #28]
 2380 0056 12F4806F 		tst	r2, #1024
 2381 005a 03D1     		bne	.L232
 657:Drivers/STM32F4xx_HAL_Driver/Src/stm32f4xx_hal_i2s.c ****     }
 2382              		.loc 1 657 0
 2383 005c DA69     		ldr	r2, [r3, #28]
 2384 005e 42F48062 		orr	r2, r2, #1024
 2385 0062 DA61     		str	r2, [r3, #28]
 2386              	.L232:
 661:Drivers/STM32F4xx_HAL_Driver/Src/stm32f4xx_hal_i2s.c ****     {
 2387              		.loc 1 661 0
 2388 0064 2268     		ldr	r2, [r4]
 2389 0066 D369     		ldr	r3, [r2, #28]
 2390 0068 03F44073 		and	r3, r3, #768
 2391 006c B3F5407F 		cmp	r3, #768
 2392 0070 1DD0     		beq	.L247
 2393              	.LVL215:
 2394              	.L234:
 669:Drivers/STM32F4xx_HAL_Driver/Src/stm32f4xx_hal_i2s.c ****     {
 2395              		.loc 1 669 0
 2396 0072 638E     		ldrh	r3, [r4, #50]
 2397 0074 9BB2     		uxth	r3, r3
 2398 0076 002B     		cmp	r3, #0
 2399 0078 3FD0     		beq	.L248
 672:Drivers/STM32F4xx_HAL_Driver/Src/stm32f4xx_hal_i2s.c ****       {
 2400              		.loc 1 672 0
 2401 007a 3346     		mov	r3, r6
 2402 007c 0122     		movs	r2, #1
 2403 007e 1146     		mov	r1, r2
 2404 0080 2046     		mov	r0, r4
 2405 0082 FFF7FEFF 		bl	I2S_WaitFlagStateUntilTimeout
 2406              	.LVL216:
 2407 0086 D0B9     		cbnz	r0, .L249
 681:Drivers/STM32F4xx_HAL_Driver/Src/stm32f4xx_hal_i2s.c ****       {
 2408              		.loc 1 681 0
 2409 0088 2368     		ldr	r3, [r4]
 2410 008a 9A68     		ldr	r2, [r3, #8]
 2411 008c 12F0400F 		tst	r2, #64
ARM GAS  C:\Users\Student\AppData\Local\Temp\ccUcoAHh.s 			page 76


 2412 0090 1ED1     		bne	.L250
 2413              	.LVL217:
 699:Drivers/STM32F4xx_HAL_Driver/Src/stm32f4xx_hal_i2s.c ****       hi2s->RxXferCount--;
 2414              		.loc 1 699 0
 2415 0092 DB68     		ldr	r3, [r3, #12]
 2416 0094 2B80     		strh	r3, [r5]	@ movhi
 700:Drivers/STM32F4xx_HAL_Driver/Src/stm32f4xx_hal_i2s.c ****     }
 2417              		.loc 1 700 0
 2418 0096 638E     		ldrh	r3, [r4, #50]
 2419 0098 9BB2     		uxth	r3, r3
 2420 009a 013B     		subs	r3, r3, #1
 2421 009c 9BB2     		uxth	r3, r3
 2422 009e 6386     		strh	r3, [r4, #50]	@ movhi
 699:Drivers/STM32F4xx_HAL_Driver/Src/stm32f4xx_hal_i2s.c ****       hi2s->RxXferCount--;
 2423              		.loc 1 699 0
 2424 00a0 0235     		adds	r5, r5, #2
 2425              	.LVL218:
 2426 00a2 E6E7     		b	.L234
 2427              	.LVL219:
 2428              	.L229:
 639:Drivers/STM32F4xx_HAL_Driver/Src/stm32f4xx_hal_i2s.c ****       hi2s->RxXferCount = (Size << 1U);
 2429              		.loc 1 639 0
 2430 00a4 5200     		lsls	r2, r2, #1
 2431              	.LVL220:
 2432 00a6 92B2     		uxth	r2, r2
 2433 00a8 2286     		strh	r2, [r4, #48]	@ movhi
 640:Drivers/STM32F4xx_HAL_Driver/Src/stm32f4xx_hal_i2s.c ****     }
 2434              		.loc 1 640 0
 2435 00aa 6286     		strh	r2, [r4, #50]	@ movhi
 2436 00ac C4E7     		b	.L231
 2437              	.LVL221:
 2438              	.L247:
 2439              	.LBB6:
 665:Drivers/STM32F4xx_HAL_Driver/Src/stm32f4xx_hal_i2s.c ****     }
 2440              		.loc 1 665 0
 2441 00ae 0023     		movs	r3, #0
 2442 00b0 0093     		str	r3, [sp]
 2443 00b2 D368     		ldr	r3, [r2, #12]
 2444 00b4 0093     		str	r3, [sp]
 2445 00b6 9368     		ldr	r3, [r2, #8]
 2446 00b8 0093     		str	r3, [sp]
 2447 00ba 009B     		ldr	r3, [sp]
 2448 00bc D9E7     		b	.L234
 2449              	.LVL222:
 2450              	.L249:
 2451              	.LBE6:
 675:Drivers/STM32F4xx_HAL_Driver/Src/stm32f4xx_hal_i2s.c ****         HAL_I2S_ErrorCallback(hi2s);
 2452              		.loc 1 675 0
 2453 00be 636C     		ldr	r3, [r4, #68]
 2454 00c0 43F00103 		orr	r3, r3, #1
 2455 00c4 6364     		str	r3, [r4, #68]
 676:Drivers/STM32F4xx_HAL_Driver/Src/stm32f4xx_hal_i2s.c ****         return HAL_TIMEOUT;
 2456              		.loc 1 676 0
 2457 00c6 2046     		mov	r0, r4
 2458 00c8 FFF7FEFF 		bl	HAL_I2S_ErrorCallback
 2459              	.LVL223:
 677:Drivers/STM32F4xx_HAL_Driver/Src/stm32f4xx_hal_i2s.c ****       }
ARM GAS  C:\Users\Student\AppData\Local\Temp\ccUcoAHh.s 			page 77


 2460              		.loc 1 677 0
 2461 00cc 0320     		movs	r0, #3
 2462 00ce A7E7     		b	.L228
 2463              	.L250:
 2464              	.LBB7:
 684:Drivers/STM32F4xx_HAL_Driver/Src/stm32f4xx_hal_i2s.c **** 
 2465              		.loc 1 684 0
 2466 00d0 0022     		movs	r2, #0
 2467 00d2 0192     		str	r2, [sp, #4]
 2468 00d4 D968     		ldr	r1, [r3, #12]
 2469 00d6 0191     		str	r1, [sp, #4]
 2470 00d8 9B68     		ldr	r3, [r3, #8]
 2471 00da 0193     		str	r3, [sp, #4]
 2472 00dc 019B     		ldr	r3, [sp, #4]
 2473              	.LBE7:
 687:Drivers/STM32F4xx_HAL_Driver/Src/stm32f4xx_hal_i2s.c **** 
 2474              		.loc 1 687 0
 2475 00de 0125     		movs	r5, #1
 2476              	.LVL224:
 2477 00e0 84F84150 		strb	r5, [r4, #65]
 690:Drivers/STM32F4xx_HAL_Driver/Src/stm32f4xx_hal_i2s.c **** 
 2478              		.loc 1 690 0
 2479 00e4 84F84020 		strb	r2, [r4, #64]
 693:Drivers/STM32F4xx_HAL_Driver/Src/stm32f4xx_hal_i2s.c ****         HAL_I2S_ErrorCallback(hi2s);
 2480              		.loc 1 693 0
 2481 00e8 636C     		ldr	r3, [r4, #68]
 2482 00ea 43F00203 		orr	r3, r3, #2
 2483 00ee 6364     		str	r3, [r4, #68]
 694:Drivers/STM32F4xx_HAL_Driver/Src/stm32f4xx_hal_i2s.c **** 
 2484              		.loc 1 694 0
 2485 00f0 2046     		mov	r0, r4
 2486 00f2 FFF7FEFF 		bl	HAL_I2S_ErrorCallback
 2487              	.LVL225:
 696:Drivers/STM32F4xx_HAL_Driver/Src/stm32f4xx_hal_i2s.c ****       }
 2488              		.loc 1 696 0
 2489 00f6 2846     		mov	r0, r5
 2490 00f8 92E7     		b	.L228
 2491              	.LVL226:
 2492              	.L248:
 703:Drivers/STM32F4xx_HAL_Driver/Src/stm32f4xx_hal_i2s.c **** 
 2493              		.loc 1 703 0
 2494 00fa 0123     		movs	r3, #1
 2495 00fc 84F84130 		strb	r3, [r4, #65]
 706:Drivers/STM32F4xx_HAL_Driver/Src/stm32f4xx_hal_i2s.c **** 
 2496              		.loc 1 706 0
 2497 0100 0020     		movs	r0, #0
 2498 0102 84F84000 		strb	r0, [r4, #64]
 708:Drivers/STM32F4xx_HAL_Driver/Src/stm32f4xx_hal_i2s.c ****   }
 2499              		.loc 1 708 0
 2500 0106 8BE7     		b	.L228
 2501              	.LVL227:
 2502              	.L238:
 2503              	.LCFI37:
 2504              		.cfi_def_cfa_offset 0
 2505              		.cfi_restore 4
 2506              		.cfi_restore 5
 2507              		.cfi_restore 6
ARM GAS  C:\Users\Student\AppData\Local\Temp\ccUcoAHh.s 			page 78


 2508              		.cfi_restore 14
 631:Drivers/STM32F4xx_HAL_Driver/Src/stm32f4xx_hal_i2s.c ****   }
 2509              		.loc 1 631 0
 2510 0108 0120     		movs	r0, #1
 2511              	.LVL228:
 2512 010a 7047     		bx	lr
 2513              	.LVL229:
 2514              	.L239:
 2515              	.LCFI38:
 2516              		.cfi_def_cfa_offset 24
 2517              		.cfi_offset 4, -16
 2518              		.cfi_offset 5, -12
 2519              		.cfi_offset 6, -8
 2520              		.cfi_offset 14, -4
 2521 010c 0120     		movs	r0, #1
 2522              	.LVL230:
 2523 010e 87E7     		b	.L228
 2524              	.LVL231:
 2525              	.L241:
 648:Drivers/STM32F4xx_HAL_Driver/Src/stm32f4xx_hal_i2s.c **** 
 2526              		.loc 1 648 0
 2527 0110 0220     		movs	r0, #2
 2528              	.LVL232:
 2529 0112 85E7     		b	.L228
 2530              		.cfi_endproc
 2531              	.LFE129:
 2533              		.section	.text.I2S_DMAError,"ax",%progbits
 2534              		.align	1
 2535              		.syntax unified
 2536              		.thumb
 2537              		.thumb_func
 2538              		.fpu fpv4-sp-d16
 2540              	I2S_DMAError:
 2541              	.LFB149:
1372:Drivers/STM32F4xx_HAL_Driver/Src/stm32f4xx_hal_i2s.c ****   I2S_HandleTypeDef* hi2s = (I2S_HandleTypeDef*)((DMA_HandleTypeDef*)hdma)->Parent;
 2542              		.loc 1 1372 0
 2543              		.cfi_startproc
 2544              		@ args = 0, pretend = 0, frame = 0
 2545              		@ frame_needed = 0, uses_anonymous_args = 0
 2546              	.LVL233:
 2547 0000 08B5     		push	{r3, lr}
 2548              	.LCFI39:
 2549              		.cfi_def_cfa_offset 8
 2550              		.cfi_offset 3, -8
 2551              		.cfi_offset 14, -4
1373:Drivers/STM32F4xx_HAL_Driver/Src/stm32f4xx_hal_i2s.c **** 
 2552              		.loc 1 1373 0
 2553 0002 806B     		ldr	r0, [r0, #56]
 2554              	.LVL234:
1376:Drivers/STM32F4xx_HAL_Driver/Src/stm32f4xx_hal_i2s.c ****   hi2s->TxXferCount = 0U;
 2555              		.loc 1 1376 0
 2556 0004 0268     		ldr	r2, [r0]
 2557 0006 5368     		ldr	r3, [r2, #4]
 2558 0008 23F00303 		bic	r3, r3, #3
 2559 000c 5360     		str	r3, [r2, #4]
1377:Drivers/STM32F4xx_HAL_Driver/Src/stm32f4xx_hal_i2s.c ****   hi2s->RxXferCount = 0U;
 2560              		.loc 1 1377 0
ARM GAS  C:\Users\Student\AppData\Local\Temp\ccUcoAHh.s 			page 79


 2561 000e 0023     		movs	r3, #0
 2562 0010 4385     		strh	r3, [r0, #42]	@ movhi
1378:Drivers/STM32F4xx_HAL_Driver/Src/stm32f4xx_hal_i2s.c **** 
 2563              		.loc 1 1378 0
 2564 0012 4386     		strh	r3, [r0, #50]	@ movhi
1380:Drivers/STM32F4xx_HAL_Driver/Src/stm32f4xx_hal_i2s.c **** 
 2565              		.loc 1 1380 0
 2566 0014 0123     		movs	r3, #1
 2567 0016 80F84130 		strb	r3, [r0, #65]
1382:Drivers/STM32F4xx_HAL_Driver/Src/stm32f4xx_hal_i2s.c ****   HAL_I2S_ErrorCallback(hi2s);
 2568              		.loc 1 1382 0
 2569 001a 436C     		ldr	r3, [r0, #68]
 2570 001c 43F00803 		orr	r3, r3, #8
 2571 0020 4364     		str	r3, [r0, #68]
1383:Drivers/STM32F4xx_HAL_Driver/Src/stm32f4xx_hal_i2s.c **** }
 2572              		.loc 1 1383 0
 2573 0022 FFF7FEFF 		bl	HAL_I2S_ErrorCallback
 2574              	.LVL235:
 2575 0026 08BD     		pop	{r3, pc}
 2576              		.cfi_endproc
 2577              	.LFE149:
 2579              		.section	.text.HAL_I2S_GetState,"ax",%progbits
 2580              		.align	1
 2581              		.global	HAL_I2S_GetState
 2582              		.syntax unified
 2583              		.thumb
 2584              		.thumb_func
 2585              		.fpu fpv4-sp-d16
 2587              	HAL_I2S_GetState:
 2588              	.LFB143:
1274:Drivers/STM32F4xx_HAL_Driver/Src/stm32f4xx_hal_i2s.c ****   return hi2s->State;
 2589              		.loc 1 1274 0
 2590              		.cfi_startproc
 2591              		@ args = 0, pretend = 0, frame = 0
 2592              		@ frame_needed = 0, uses_anonymous_args = 0
 2593              		@ link register save eliminated.
 2594              	.LVL236:
1275:Drivers/STM32F4xx_HAL_Driver/Src/stm32f4xx_hal_i2s.c **** }
 2595              		.loc 1 1275 0
 2596 0000 90F84100 		ldrb	r0, [r0, #65]	@ zero_extendqisi2
 2597              	.LVL237:
1276:Drivers/STM32F4xx_HAL_Driver/Src/stm32f4xx_hal_i2s.c **** 
 2598              		.loc 1 1276 0
 2599 0004 7047     		bx	lr
 2600              		.cfi_endproc
 2601              	.LFE143:
 2603              		.section	.text.HAL_I2S_GetError,"ax",%progbits
 2604              		.align	1
 2605              		.global	HAL_I2S_GetError
 2606              		.syntax unified
 2607              		.thumb
 2608              		.thumb_func
 2609              		.fpu fpv4-sp-d16
 2611              	HAL_I2S_GetError:
 2612              	.LFB144:
1285:Drivers/STM32F4xx_HAL_Driver/Src/stm32f4xx_hal_i2s.c ****   return hi2s->ErrorCode;
 2613              		.loc 1 1285 0
ARM GAS  C:\Users\Student\AppData\Local\Temp\ccUcoAHh.s 			page 80


 2614              		.cfi_startproc
 2615              		@ args = 0, pretend = 0, frame = 0
 2616              		@ frame_needed = 0, uses_anonymous_args = 0
 2617              		@ link register save eliminated.
 2618              	.LVL238:
1286:Drivers/STM32F4xx_HAL_Driver/Src/stm32f4xx_hal_i2s.c **** }
 2619              		.loc 1 1286 0
 2620 0000 406C     		ldr	r0, [r0, #68]
 2621              	.LVL239:
1287:Drivers/STM32F4xx_HAL_Driver/Src/stm32f4xx_hal_i2s.c **** /**
 2622              		.loc 1 1287 0
 2623 0002 7047     		bx	lr
 2624              		.cfi_endproc
 2625              	.LFE144:
 2627              		.text
 2628              	.Letext0:
 2629              		.file 2 "c:\\gcc_toolchain\\6_2017-q1-update\\arm-none-eabi\\include\\machine\\_default_types.h"
 2630              		.file 3 "c:\\gcc_toolchain\\6_2017-q1-update\\arm-none-eabi\\include\\sys\\_stdint.h"
 2631              		.file 4 "Drivers/CMSIS/Include/core_cm4.h"
 2632              		.file 5 "Drivers/CMSIS/Device/ST/STM32F4xx/Include/system_stm32f4xx.h"
 2633              		.file 6 "Drivers/CMSIS/Device/ST/STM32F4xx/Include/stm32f407xx.h"
 2634              		.file 7 "c:\\gcc_toolchain\\6_2017-q1-update\\arm-none-eabi\\include\\sys\\lock.h"
 2635              		.file 8 "c:\\gcc_toolchain\\6_2017-q1-update\\arm-none-eabi\\include\\sys\\_types.h"
 2636              		.file 9 "c:\\gcc_toolchain\\6_2017-q1-update\\lib\\gcc\\arm-none-eabi\\6.3.1\\include\\stddef.h"
 2637              		.file 10 "c:\\gcc_toolchain\\6_2017-q1-update\\arm-none-eabi\\include\\sys\\reent.h"
 2638              		.file 11 "Drivers/CMSIS/Device/ST/STM32F4xx/Include/stm32f4xx.h"
 2639              		.file 12 "Drivers/STM32F4xx_HAL_Driver/Inc/stm32f4xx_hal_def.h"
 2640              		.file 13 "Drivers/STM32F4xx_HAL_Driver/Inc/stm32f4xx_hal_dma.h"
 2641              		.file 14 "Drivers/STM32F4xx_HAL_Driver/Inc/stm32f4xx_hal_i2s.h"
 2642              		.file 15 "Drivers/STM32F4xx_HAL_Driver/Inc/stm32f4xx_hal.h"
 2643              		.file 16 "Drivers/STM32F4xx_HAL_Driver/Inc/stm32f4xx_hal_rcc_ex.h"
ARM GAS  C:\Users\Student\AppData\Local\Temp\ccUcoAHh.s 			page 81


DEFINED SYMBOLS
                            *ABS*:00000000 stm32f4xx_hal_i2s.c
C:\Users\Student\AppData\Local\Temp\ccUcoAHh.s:18     .text.I2S_WaitFlagStateUntilTimeout:00000000 $t
C:\Users\Student\AppData\Local\Temp\ccUcoAHh.s:24     .text.I2S_WaitFlagStateUntilTimeout:00000000 I2S_WaitFlagStateUntilTimeout
C:\Users\Student\AppData\Local\Temp\ccUcoAHh.s:100    .text.HAL_I2S_MspInit:00000000 $t
C:\Users\Student\AppData\Local\Temp\ccUcoAHh.s:107    .text.HAL_I2S_MspInit:00000000 HAL_I2S_MspInit
C:\Users\Student\AppData\Local\Temp\ccUcoAHh.s:120    .text.HAL_I2S_MspDeInit:00000000 $t
C:\Users\Student\AppData\Local\Temp\ccUcoAHh.s:127    .text.HAL_I2S_MspDeInit:00000000 HAL_I2S_MspDeInit
C:\Users\Student\AppData\Local\Temp\ccUcoAHh.s:140    .text.HAL_I2S_DeInit:00000000 $t
C:\Users\Student\AppData\Local\Temp\ccUcoAHh.s:147    .text.HAL_I2S_DeInit:00000000 HAL_I2S_DeInit
C:\Users\Student\AppData\Local\Temp\ccUcoAHh.s:192    .text.HAL_I2S_Transmit_IT:00000000 $t
C:\Users\Student\AppData\Local\Temp\ccUcoAHh.s:199    .text.HAL_I2S_Transmit_IT:00000000 HAL_I2S_Transmit_IT
C:\Users\Student\AppData\Local\Temp\ccUcoAHh.s:312    .text.HAL_I2S_Receive_IT:00000000 $t
C:\Users\Student\AppData\Local\Temp\ccUcoAHh.s:319    .text.HAL_I2S_Receive_IT:00000000 HAL_I2S_Receive_IT
C:\Users\Student\AppData\Local\Temp\ccUcoAHh.s:432    .text.HAL_I2S_Transmit_DMA:00000000 $t
C:\Users\Student\AppData\Local\Temp\ccUcoAHh.s:439    .text.HAL_I2S_Transmit_DMA:00000000 HAL_I2S_Transmit_DMA
C:\Users\Student\AppData\Local\Temp\ccUcoAHh.s:594    .text.HAL_I2S_Transmit_DMA:000000b0 $d
C:\Users\Student\AppData\Local\Temp\ccUcoAHh.s:1235   .text.I2S_DMATxHalfCplt:00000000 I2S_DMATxHalfCplt
C:\Users\Student\AppData\Local\Temp\ccUcoAHh.s:1345   .text.I2S_DMATxCplt:00000000 I2S_DMATxCplt
C:\Users\Student\AppData\Local\Temp\ccUcoAHh.s:2540   .text.I2S_DMAError:00000000 I2S_DMAError
C:\Users\Student\AppData\Local\Temp\ccUcoAHh.s:601    .text.HAL_I2S_Receive_DMA:00000000 $t
C:\Users\Student\AppData\Local\Temp\ccUcoAHh.s:608    .text.HAL_I2S_Receive_DMA:00000000 HAL_I2S_Receive_DMA
C:\Users\Student\AppData\Local\Temp\ccUcoAHh.s:792    .text.HAL_I2S_Receive_DMA:000000d0 $d
C:\Users\Student\AppData\Local\Temp\ccUcoAHh.s:1413   .text.I2S_DMARxHalfCplt:00000000 I2S_DMARxHalfCplt
C:\Users\Student\AppData\Local\Temp\ccUcoAHh.s:1523   .text.I2S_DMARxCplt:00000000 I2S_DMARxCplt
C:\Users\Student\AppData\Local\Temp\ccUcoAHh.s:799    .text.HAL_I2S_DMAPause:00000000 $t
C:\Users\Student\AppData\Local\Temp\ccUcoAHh.s:806    .text.HAL_I2S_DMAPause:00000000 HAL_I2S_DMAPause
C:\Users\Student\AppData\Local\Temp\ccUcoAHh.s:891    .text.HAL_I2S_DMAPause:00000078 $d
C:\Users\Student\AppData\Local\Temp\ccUcoAHh.s:897    .text.HAL_I2S_DMAResume:00000000 $t
C:\Users\Student\AppData\Local\Temp\ccUcoAHh.s:904    .text.HAL_I2S_DMAResume:00000000 HAL_I2S_DMAResume
C:\Users\Student\AppData\Local\Temp\ccUcoAHh.s:1019   .text.HAL_I2S_DMAResume:000000ac $d
C:\Users\Student\AppData\Local\Temp\ccUcoAHh.s:1025   .text.HAL_I2S_DMAStop:00000000 $t
C:\Users\Student\AppData\Local\Temp\ccUcoAHh.s:1032   .text.HAL_I2S_DMAStop:00000000 HAL_I2S_DMAStop
C:\Users\Student\AppData\Local\Temp\ccUcoAHh.s:1175   .text.HAL_I2S_DMAStop:000000c0 $d
C:\Users\Student\AppData\Local\Temp\ccUcoAHh.s:1181   .text.HAL_I2S_IRQHandler:00000000 $t
C:\Users\Student\AppData\Local\Temp\ccUcoAHh.s:1188   .text.HAL_I2S_IRQHandler:00000000 HAL_I2S_IRQHandler
C:\Users\Student\AppData\Local\Temp\ccUcoAHh.s:1209   .text.HAL_I2S_TxHalfCpltCallback:00000000 $t
C:\Users\Student\AppData\Local\Temp\ccUcoAHh.s:1216   .text.HAL_I2S_TxHalfCpltCallback:00000000 HAL_I2S_TxHalfCpltCallback
C:\Users\Student\AppData\Local\Temp\ccUcoAHh.s:1229   .text.I2S_DMATxHalfCplt:00000000 $t
C:\Users\Student\AppData\Local\Temp\ccUcoAHh.s:1259   .text.HAL_I2S_TxCpltCallback:00000000 $t
C:\Users\Student\AppData\Local\Temp\ccUcoAHh.s:1266   .text.HAL_I2S_TxCpltCallback:00000000 HAL_I2S_TxCpltCallback
C:\Users\Student\AppData\Local\Temp\ccUcoAHh.s:1279   .text.I2S_Transmit_IT:00000000 $t
C:\Users\Student\AppData\Local\Temp\ccUcoAHh.s:1285   .text.I2S_Transmit_IT:00000000 I2S_Transmit_IT
C:\Users\Student\AppData\Local\Temp\ccUcoAHh.s:1339   .text.I2S_DMATxCplt:00000000 $t
C:\Users\Student\AppData\Local\Temp\ccUcoAHh.s:1387   .text.HAL_I2S_RxHalfCpltCallback:00000000 $t
C:\Users\Student\AppData\Local\Temp\ccUcoAHh.s:1394   .text.HAL_I2S_RxHalfCpltCallback:00000000 HAL_I2S_RxHalfCpltCallback
C:\Users\Student\AppData\Local\Temp\ccUcoAHh.s:1407   .text.I2S_DMARxHalfCplt:00000000 $t
C:\Users\Student\AppData\Local\Temp\ccUcoAHh.s:1437   .text.HAL_I2S_RxCpltCallback:00000000 $t
C:\Users\Student\AppData\Local\Temp\ccUcoAHh.s:1444   .text.HAL_I2S_RxCpltCallback:00000000 HAL_I2S_RxCpltCallback
C:\Users\Student\AppData\Local\Temp\ccUcoAHh.s:1457   .text.I2S_Receive_IT:00000000 $t
C:\Users\Student\AppData\Local\Temp\ccUcoAHh.s:1463   .text.I2S_Receive_IT:00000000 I2S_Receive_IT
C:\Users\Student\AppData\Local\Temp\ccUcoAHh.s:1517   .text.I2S_DMARxCplt:00000000 $t
C:\Users\Student\AppData\Local\Temp\ccUcoAHh.s:1565   .text.HAL_I2S_ErrorCallback:00000000 $t
C:\Users\Student\AppData\Local\Temp\ccUcoAHh.s:1572   .text.HAL_I2S_ErrorCallback:00000000 HAL_I2S_ErrorCallback
C:\Users\Student\AppData\Local\Temp\ccUcoAHh.s:1585   .text.HAL_I2S_Init:00000000 $t
C:\Users\Student\AppData\Local\Temp\ccUcoAHh.s:1592   .text.HAL_I2S_Init:00000000 HAL_I2S_Init
C:\Users\Student\AppData\Local\Temp\ccUcoAHh.s:1894   .text.HAL_I2S_Init:00000180 $d
ARM GAS  C:\Users\Student\AppData\Local\Temp\ccUcoAHh.s 			page 82


C:\Users\Student\AppData\Local\Temp\ccUcoAHh.s:1909   .text.I2S_IRQHandler:00000000 I2S_IRQHandler
C:\Users\Student\AppData\Local\Temp\ccUcoAHh.s:1903   .text.I2S_IRQHandler:00000000 $t
C:\Users\Student\AppData\Local\Temp\ccUcoAHh.s:2065   .text.HAL_I2S_Transmit:00000000 $t
C:\Users\Student\AppData\Local\Temp\ccUcoAHh.s:2072   .text.HAL_I2S_Transmit:00000000 HAL_I2S_Transmit
C:\Users\Student\AppData\Local\Temp\ccUcoAHh.s:2290   .text.HAL_I2S_Receive:00000000 $t
C:\Users\Student\AppData\Local\Temp\ccUcoAHh.s:2297   .text.HAL_I2S_Receive:00000000 HAL_I2S_Receive
C:\Users\Student\AppData\Local\Temp\ccUcoAHh.s:2534   .text.I2S_DMAError:00000000 $t
C:\Users\Student\AppData\Local\Temp\ccUcoAHh.s:2580   .text.HAL_I2S_GetState:00000000 $t
C:\Users\Student\AppData\Local\Temp\ccUcoAHh.s:2587   .text.HAL_I2S_GetState:00000000 HAL_I2S_GetState
C:\Users\Student\AppData\Local\Temp\ccUcoAHh.s:2604   .text.HAL_I2S_GetError:00000000 $t
C:\Users\Student\AppData\Local\Temp\ccUcoAHh.s:2611   .text.HAL_I2S_GetError:00000000 HAL_I2S_GetError
                     .debug_frame:00000010 $d

UNDEFINED SYMBOLS
HAL_GetTick
HAL_DMA_Start_IT
HAL_DMA_Abort
HAL_RCCEx_GetPeriphCLKFreq
HAL_I2SEx_FullDuplex_IRQHandler
